(dp0
I8192
(dp1
S'url'
p2
V2011_001028.jpg
p3
sS'mu'
p4
F27.857874276157826
ssI8193
(dp5
g2
V2008_006327.jpg
p6
sg4
F27.62942225155698
ssI8194
(dp7
g2
V2008_007441.jpg
p8
sg4
F25.70563359669481
ssI8195
(dp9
g2
V2011_002558.jpg
p10
sg4
F16.146154777978303
ssI8196
(dp11
g2
V2008_006732.jpg
p12
sg4
F25.031435454707715
ssI8197
(dp13
g2
V2011_001382.jpg
p14
sg4
F28.939513311425664
ssI8198
(dp15
g2
V2009_000565.jpg
p16
sg4
F30.530489775112553
ssI8199
(dp17
g2
V2008_005846.jpg
p18
sg4
F34.25968312468811
ssI8200
(dp19
g2
V2010_003597.jpg
p20
sg4
F27.503669168998744
ssI8201
(dp21
g2
V2010_001907.jpg
p22
sg4
F20.561279009327844
ssI8202
(dp23
g2
V2008_000808.jpg
p24
sg4
F23.604501090671203
ssI8203
(dp25
g2
V2008_008432.jpg
p26
sg4
F27.770420187001488
ssI8204
(dp27
g2
V2011_002588.jpg
p28
sg4
F27.49282493596345
ssI8205
(dp29
g2
V2011_001001.jpg
p30
sg4
F31.913409738647122
ssI8206
(dp31
g2
V2008_002241.jpg
p32
sg4
F29.908361358213188
ssI8207
(dp33
g2
V2008_005936.jpg
p34
sg4
F27.896743076543018
ssI8208
(dp35
g2
V2009_000488.jpg
p36
sg4
F31.670447198422053
ssI8209
(dp37
g2
V2011_002247.jpg
p38
sg4
F26.86322407810641
ssI8210
(dp39
g2
V2010_004871.jpg
p40
sg4
F25.276292004406496
ssI8211
(dp41
g2
V2009_002382.jpg
p42
sg4
F32.11173295705616
ssI8212
(dp43
g2
V2010_000805.jpg
p44
sg4
F18.860703342090673
ssI8213
(dp45
g2
V2010_003120.jpg
p46
sg4
F28.40568494303275
ssI8214
(dp47
g2
V2008_004055.jpg
p48
sg4
F29.399550394907585
ssI8215
(dp49
g2
V2010_000248.jpg
p50
sg4
F25.18759142804826
ssI8216
(dp51
g2
V2010_001434.jpg
p52
sg4
F31.260540003266527
ssI8217
(dp53
g2
V2008_001538.jpg
p54
sg4
F28.11203319569856
ssI8218
(dp55
g2
V2008_006606.jpg
p56
sg4
F25.17930448610537
ssI8219
(dp57
g2
V2008_002079.jpg
p58
sg4
F33.022066804988405
ssI8220
(dp59
g2
V2009_005308.jpg
p60
sg4
F21.116301747151233
ssI8221
(dp61
g2
V2010_002740.jpg
p62
sg4
F19.679412525669257
ssI8222
(dp63
g2
V2008_000911.jpg
p64
sg4
F24.60177007263121
ssI8223
(dp65
g2
V2010_004944.jpg
p66
sg4
F27.096130178161893
ssI8224
(dp67
g2
V2009_001906.jpg
p68
sg4
F23.211889875624863
ssI8225
(dp69
g2
V2010_001995.jpg
p70
sg4
F18.331952103601708
ssI8226
(dp71
g2
V2010_002526.jpg
p72
sg4
F22.58099250499678
ssI8227
(dp73
g2
V2011_002091.jpg
p74
sg4
F21.53148570000252
ssI8228
(dp75
g2
V2008_008064.jpg
p76
sg4
F27.284820609460755
ssI8229
(dp77
g2
V2008_004973.jpg
p78
sg4
F18.394419356468237
ssI8230
(dp79
g2
V2009_004849.jpg
p80
sg4
F31.7742392698987
ssI8231
(dp81
g2
V2008_003344.jpg
p82
sg4
F24.802350006146938
ssI8232
(dp83
g2
V2008_003251.jpg
p84
sg4
F27.56184892195155
ssI8233
(dp85
g2
V2009_000354.jpg
p86
sg4
F24.30093172784767
ssI8234
(dp87
g2
V2008_004453.jpg
p88
sg4
F21.190739204009716
ssI8235
(dp89
g2
V2010_002113.jpg
p90
sg4
F19.129788981230366
ssI8236
(dp91
g2
V2010_000695.jpg
p92
sg4
F23.868469576426616
ssI8237
(dp93
g2
V2009_004440.jpg
p94
sg4
F22.651202896770094
ssI8238
(dp95
g2
V2009_002908.jpg
p96
sg4
F21.86450308288866
ssI8239
(dp97
g2
V2010_003943.jpg
p98
sg4
F31.193570788757718
ssI8240
(dp99
g2
V2009_002182.jpg
p100
sg4
F29.866124100551083
ssI8241
(dp101
g2
V2010_005996.jpg
p102
sg4
F29.10600637597598
ssI8242
(dp103
g2
V2010_003122.jpg
p104
sg4
F28.384864146724993
ssI8243
(dp105
g2
V2010_005350.jpg
p106
sg4
F25.82061098532061
ssI8244
(dp107
g2
V2009_004271.jpg
p108
sg4
F23.915006748982655
ssI8245
(dp109
g2
V2008_008359.jpg
p110
sg4
F14.1064450150686
ssI8246
(dp111
g2
V2009_003543.jpg
p112
sg4
F27.41220987035655
ssI8247
(dp113
g2
V2008_007595.jpg
p114
sg4
F24.998095182384663
ssI8248
(dp115
g2
V2009_004697.jpg
p116
sg4
F27.589677249312047
ssI8249
(dp117
g2
V2009_003136.jpg
p118
sg4
F27.168162196515
ssI8250
(dp119
g2
V2010_000770.jpg
p120
sg4
F28.99883857041988
ssI8251
(dp121
g2
V2009_002173.jpg
p122
sg4
F21.452086424432256
ssI8252
(dp123
g2
V2008_000796.jpg
p124
sg4
F22.70155322278106
ssI8253
(dp125
g2
V2008_006394.jpg
p126
sg4
F20.174269602228822
ssI8254
(dp127
g2
V2010_003925.jpg
p128
sg4
F16.055810388504256
ssI8255
(dp129
g2
V2008_004269.jpg
p130
sg4
F20.983298059388602
ssI8256
(dp131
g2
V2008_007588.jpg
p132
sg4
F23.337543492721817
ssI8257
(dp133
g2
V2009_004197.jpg
p134
sg4
F28.372700534582403
ssI8258
(dp135
g2
V2009_004455.jpg
p136
sg4
F30.041034311421594
ssI8259
(dp137
g2
V2011_001611.jpg
p138
sg4
F20.39352660209021
ssI8260
(dp139
g2
V2010_002840.jpg
p140
sg4
F24.515325853507587
ssI8261
(dp141
g2
V2008_008755.jpg
p142
sg4
F32.42311576968256
ssI8262
(dp143
g2
V2009_004312.jpg
p144
sg4
F25.282805152989745
ssI8263
(dp145
g2
V2009_001801.jpg
p146
sg4
F27.02972520341994
ssI8264
(dp147
g2
V2008_004081.jpg
p148
sg4
F23.04592897891344
ssI8265
(dp149
g2
V2008_003424.jpg
p150
sg4
F31.251205541786526
ssI8266
(dp151
g2
V2009_002862.jpg
p152
sg4
F21.602022179239253
ssI8267
(dp153
g2
V2010_003861.jpg
p154
sg4
F29.727129597298973
ssI8268
(dp155
g2
V2008_001708.jpg
p156
sg4
F21.247629460380587
ssI8269
(dp157
g2
V2011_001834.jpg
p158
sg4
F13.727438736718454
ssI8270
(dp159
g2
V2010_002104.jpg
p160
sg4
F28.53899748385659
ssI8271
(dp161
g2
V2010_005437.jpg
p162
sg4
F20.48716672648194
ssI8272
(dp163
g2
V2008_001070.jpg
p164
sg4
F21.874674262553096
ssI8273
(dp165
g2
V2010_000137.jpg
p166
sg4
F25.828518040248927
ssI8274
(dp167
g2
V2010_002436.jpg
p168
sg4
F20.659438390323604
ssI8275
(dp169
g2
V2009_000996.jpg
p170
sg4
F29.713546718931763
ssI8276
(dp171
g2
V2008_002293.jpg
p172
sg4
F25.508416664984118
ssI8277
(dp173
g2
V2008_003472.jpg
p174
sg4
F24.933499810660287
ssI8278
(dp175
g2
V2010_001748.jpg
p176
sg4
F30.91632278619924
ssI8279
(dp177
g2
V2009_001320.jpg
p178
sg4
F27.503569571708194
ssI8280
(dp179
g2
V2008_006169.jpg
p180
sg4
F28.217899848492344
ssI8281
(dp181
g2
V2011_000536.jpg
p182
sg4
F21.706342952412605
ssI8282
(dp183
g2
V2009_004332.jpg
p184
sg4
F27.46387619375874
ssI8283
(dp185
g2
V2011_001389.jpg
p186
sg4
F22.253653442381488
ssI8284
(dp187
g2
V2008_004976.jpg
p188
sg4
F28.18714077686938
ssI8285
(dp189
g2
V2011_000530.jpg
p190
sg4
F29.80681962569974
ssI8286
(dp191
g2
V2009_004140.jpg
p192
sg4
F30.66881795173449
ssI8287
(dp193
g2
V2010_002039.jpg
p194
sg4
F29.87440694424274
ssI8288
(dp195
g2
V2009_003346.jpg
p196
sg4
F32.74816738788804
ssI8289
(dp197
g2
V2008_008685.jpg
p198
sg4
F24.246073796564332
ssI8290
(dp199
g2
V2011_002462.jpg
p200
sg4
F28.557858082617106
ssI8291
(dp201
g2
V2008_005276.jpg
p202
sg4
F33.36322694079857
ssI8292
(dp203
g2
V2010_005705.jpg
p204
sg4
F30.075474119727087
ssI8293
(dp205
g2
V2008_005183.jpg
p206
sg4
F32.08196726844816
ssI8294
(dp207
g2
V2009_001962.jpg
p208
sg4
F22.740378831251203
ssI8295
(dp209
g2
V2008_003545.jpg
p210
sg4
F27.33404946795403
ssI8296
(dp211
g2
V2009_003974.jpg
p212
sg4
F16.30622986679633
ssI8297
(dp213
g2
V2011_002005.jpg
p214
sg4
F30.093081242552728
ssI8298
(dp215
g2
V2011_001900.jpg
p216
sg4
F25.707907001234336
ssI8299
(dp217
g2
V2008_004182.jpg
p218
sg4
F27.529865449314535
ssI8300
(dp219
g2
V2011_000784.jpg
p220
sg4
F23.06942921380468
ssI8301
(dp221
g2
V2008_001167.jpg
p222
sg4
F30.27465131345761
ssI8302
(dp223
g2
V2009_000926.jpg
p224
sg4
F35.07912895315846
ssI8303
(dp225
g2
V2010_001179.jpg
p226
sg4
F25.1426194352901
ssI8304
(dp227
g2
V2009_000029.jpg
p228
sg4
F19.038504125250647
ssI8305
(dp229
g2
V2009_004975.jpg
p230
sg4
F21.86839058914662
ssI8306
(dp231
g2
V2009_003064.jpg
p232
sg4
F23.840812530210968
ssI8307
(dp233
g2
V2009_002594.jpg
p234
sg4
F19.09623735953536
ssI8308
(dp235
g2
V2011_002325.jpg
p236
sg4
F31.340842810691353
ssI8309
(dp237
g2
V2008_008506.jpg
p238
sg4
F18.83786395627663
ssI8310
(dp239
g2
V2011_000734.jpg
p240
sg4
F18.231088875750352
ssI8311
(dp241
g2
V2008_007710.jpg
p242
sg4
F20.632739448523342
ssI8312
(dp243
g2
V2008_000413.jpg
p244
sg4
F18.56517867051139
ssI8313
(dp245
g2
V2009_005079.jpg
p246
sg4
F28.047027846613553
ssI8314
(dp247
g2
V2010_005463.jpg
p248
sg4
F30.543213614190954
ssI8315
(dp249
g2
V2009_005042.jpg
p250
sg4
F35.46719878323297
ssI8316
(dp251
g2
V2008_006497.jpg
p252
sg4
F22.539375549480546
ssI8317
(dp253
g2
V2009_000550.jpg
p254
sg4
F25.342339214645918
ssI8318
(dp255
g2
V2009_003487.jpg
p256
sg4
F23.102486646322305
ssI8319
(dp257
g2
V2011_002224.jpg
p258
sg4
F30.02474808597195
ssI8320
(dp259
g2
V2008_006751.jpg
p260
sg4
F25.66056323115017
ssI8321
(dp261
g2
V2010_001893.jpg
p262
sg4
F18.210198146929628
ssI8322
(dp263
g2
V2011_001193.jpg
p264
sg4
F32.97868799406341
ssI8323
(dp265
g2
V2009_001927.jpg
p266
sg4
F18.198849698873698
ssI8324
(dp267
g2
V2011_001489.jpg
p268
sg4
F23.30496458877719
ssI8325
(dp269
g2
V2009_001867.jpg
p270
sg4
F31.585408933592173
ssI8326
(dp271
g2
V2010_001823.jpg
p272
sg4
F28.72319987119251
ssI8327
(dp273
g2
V2010_002892.jpg
p274
sg4
F13.083397235299493
ssI8328
(dp275
g2
V2009_001519.jpg
p276
sg4
F32.948468381816014
ssI8329
(dp277
g2
V2009_004731.jpg
p278
sg4
F24.154646837206155
ssI8330
(dp279
g2
V2008_001510.jpg
p280
sg4
F23.105594901578872
ssI8331
(dp281
g2
V2009_000385.jpg
p282
sg4
F22.538190101482723
ssI8332
(dp283
g2
V2008_003079.jpg
p284
sg4
F29.532115981604793
ssI8333
(dp285
g2
V2011_001880.jpg
p286
sg4
F32.20276402074854
ssI8334
(dp287
g2
V2009_004749.jpg
p288
sg4
F27.432909369768268
ssI8335
(dp289
g2
V2009_001349.jpg
p290
sg4
F27.368001819899693
ssI8336
(dp291
g2
V2010_003761.jpg
p292
sg4
F23.91776242589259
ssI8337
(dp293
g2
V2008_003858.jpg
p294
sg4
F24.578294785583516
ssI8338
(dp295
g2
V2009_003031.jpg
p296
sg4
F22.217151550122853
ssI8339
(dp297
g2
V2010_002946.jpg
p298
sg4
F32.98017242873941
ssI8340
(dp299
g2
V2010_003746.jpg
p300
sg4
F21.020159211351668
ssI8341
(dp301
g2
V2008_001967.jpg
p302
sg4
F28.793107928954342
ssI8342
(dp303
g2
V2009_001227.jpg
p304
sg4
F26.280080317417028
ssI8343
(dp305
g2
V2010_005995.jpg
p306
sg4
F18.211444117166106
ssI8344
(dp307
g2
V2008_007280.jpg
p308
sg4
F27.863401838784448
ssI8345
(dp309
g2
V2008_005167.jpg
p310
sg4
F15.545646286464276
ssI8346
(dp311
g2
V2010_003592.jpg
p312
sg4
F11.640662335376797
ssI8347
(dp313
g2
V2010_002654.jpg
p314
sg4
F20.42801603350531
ssI8348
(dp315
g2
V2011_002144.jpg
p316
sg4
F26.71136599166181
ssI8349
(dp317
g2
V2011_002458.jpg
p318
sg4
F28.091284135920592
ssI8350
(dp319
g2
V2010_002073.jpg
p320
sg4
F22.158055541479577
ssI8351
(dp321
g2
V2011_000338.jpg
p322
sg4
F23.909562793914336
ssI8352
(dp323
g2
V2008_007850.jpg
p324
sg4
F22.772594126173097
ssI8353
(dp325
g2
V2010_001607.jpg
p326
sg4
F16.794370070718934
ssI8354
(dp327
g2
V2008_001068.jpg
p328
sg4
F27.121605002506715
ssI8355
(dp329
g2
V2008_006275.jpg
p330
sg4
F25.406904502253077
ssI8356
(dp331
g2
V2009_004922.jpg
p332
sg4
F29.628240683375797
ssI8357
(dp333
g2
V2010_004791.jpg
p334
sg4
F20.120761243201116
ssI8358
(dp335
g2
V2008_007993.jpg
p336
sg4
F32.824769860443226
ssI8359
(dp337
g2
V2009_003059.jpg
p338
sg4
F21.63418918099932
ssI8360
(dp339
g2
V2008_007260.jpg
p340
sg4
F22.033640361598017
ssI8361
(dp341
g2
V2011_000374.jpg
p342
sg4
F22.74564973891079
ssI8362
(dp343
g2
V2009_003458.jpg
p344
sg4
F26.407577471676717
ssI8363
(dp345
g2
V2011_000934.jpg
p346
sg4
F23.626030791885956
ssI8364
(dp347
g2
V2008_005467.jpg
p348
sg4
F20.017034759943652
ssI8365
(dp349
g2
V2010_000075.jpg
p350
sg4
F24.357941184178543
ssI8366
(dp351
g2
V2008_004318.jpg
p352
sg4
F29.757358447326496
ssI8367
(dp353
g2
V2008_007222.jpg
p354
sg4
F24.52696881176595
ssI8368
(dp355
g2
V2008_006290.jpg
p356
sg4
F24.377984651259222
ssI8369
(dp357
g2
V2009_004897.jpg
p358
sg4
F19.400729406960153
ssI8370
(dp359
g2
V2010_005468.jpg
p360
sg4
F29.80588529896064
ssI8371
(dp361
g2
V2009_003431.jpg
p362
sg4
F25.794112862888316
ssI8372
(dp363
g2
V2009_001110.jpg
p364
sg4
F21.716687017876644
ssI8373
(dp365
g2
V2010_000787.jpg
p366
sg4
F31.292922897263836
ssI8374
(dp367
g2
V2010_005099.jpg
p368
sg4
F18.9818504942053
ssI8375
(dp369
g2
V2008_003023.jpg
p370
sg4
F17.18558950407493
ssI8376
(dp371
g2
V2010_002382.jpg
p372
sg4
F23.244684258591274
ssI8377
(dp373
g2
V2008_004702.jpg
p374
sg4
F18.946307005815274
ssI8378
(dp375
g2
V2009_005185.jpg
p376
sg4
F26.764186779371645
ssI8379
(dp377
g2
V2010_003949.jpg
p378
sg4
F31.7226456961041
ssI8380
(dp379
g2
V2009_003805.jpg
p380
sg4
F24.821960179302906
ssI8381
(dp381
g2
V2011_001288.jpg
p382
sg4
F24.95802022731211
ssI8382
(dp383
g2
V2010_004829.jpg
p384
sg4
F19.182588853139894
ssI8383
(dp385
g2
V2011_000491.jpg
p386
sg4
F26.44173438549535
ssI8384
(dp387
g2
V2008_001782.jpg
p388
sg4
F19.24614298724575
ssI8385
(dp389
g2
V2008_001638.jpg
p390
sg4
F35.16221801951941
ssI8386
(dp391
g2
V2008_004940.jpg
p392
sg4
F28.45035654165657
ssI8387
(dp393
g2
V2010_003877.jpg
p394
sg4
F29.740471300251627
ssI8388
(dp395
g2
V2010_004906.jpg
p396
sg4
F22.07606444229302
ssI8389
(dp397
g2
V2011_002453.jpg
p398
sg4
F19.24976137409617
ssI8390
(dp399
g2
V2009_005142.jpg
p400
sg4
F22.34183352311336
ssI8391
(dp401
g2
V2010_003594.jpg
p402
sg4
F31.673139165591394
ssI8392
(dp403
g2
V2010_004227.jpg
p404
sg4
F22.094195748594185
ssI8393
(dp405
g2
V2008_007766.jpg
p406
sg4
F24.542330819136442
ssI8394
(dp407
g2
V2008_008288.jpg
p408
sg4
F32.563500948195056
ssI8395
(dp409
g2
V2009_004552.jpg
p410
sg4
F22.246275107718137
ssI8396
(dp411
g2
V2010_000778.jpg
p412
sg4
F23.697883455311928
ssI8397
(dp413
g2
V2010_000272.jpg
p414
sg4
F26.25301704406968
ssI8398
(dp415
g2
V2010_002349.jpg
p416
sg4
F19.993102773679155
ssI8399
(dp417
g2
V2009_004217.jpg
p418
sg4
F25.852451600065844
ssI8400
(dp419
g2
V2008_003749.jpg
p420
sg4
F23.553525693674622
ssI8401
(dp421
g2
V2008_005251.jpg
p422
sg4
F18.439772554206495
ssI8402
(dp423
g2
V2011_001713.jpg
p424
sg4
F21.901288293561265
ssI8403
(dp425
g2
V2008_006919.jpg
p426
sg4
F30.21614291015801
ssI8404
(dp427
g2
V2010_001024.jpg
p428
sg4
F27.676066060569376
ssI8405
(dp429
g2
V2008_002936.jpg
p430
sg4
F24.07292507206941
ssI8406
(dp431
g2
V2010_005721.jpg
p432
sg4
F27.851955824758967
ssI8407
(dp433
g2
V2011_001691.jpg
p434
sg4
F26.819707731187417
ssI8408
(dp435
g2
V2011_000834.jpg
p436
sg4
F24.23340183888041
ssI8409
(dp437
g2
V2010_003919.jpg
p438
sg4
F26.097074714969022
ssI8410
(dp439
g2
V2011_002504.jpg
p440
sg4
F25.75891010327427
ssI8411
(dp441
g2
V2011_001005.jpg
p442
sg4
F18.96772267222304
ssI8412
(dp443
g2
V2010_003263.jpg
p444
sg4
F27.098071083523028
ssI8413
(dp445
g2
V2010_004002.jpg
p446
sg4
F24.26917763142103
ssI8414
(dp447
g2
V2008_007941.jpg
p448
sg4
F26.994013157518832
ssI8415
(dp449
g2
V2011_002631.jpg
p450
sg4
F29.376809872322486
ssI8416
(dp451
g2
V2011_001434.jpg
p452
sg4
F21.463334064785414
ssI8417
(dp453
g2
V2009_005294.jpg
p454
sg4
F27.743289108648934
ssI8418
(dp455
g2
V2008_007273.jpg
p456
sg4
F18.039520635806486
ssI8419
(dp457
g2
V2008_006254.jpg
p458
sg4
F33.436193752460014
ssI8420
(dp459
g2
V2008_003962.jpg
p460
sg4
F30.978975743044376
ssI8421
(dp461
g2
V2008_006616.jpg
p462
sg4
F22.5434133398467
ssI8422
(dp463
g2
V2008_006503.jpg
p464
sg4
F20.39641745850978
ssI8423
(dp465
g2
V2010_005646.jpg
p466
sg4
F26.770055185600494
ssI8424
(dp467
g2
V2011_002944.jpg
p468
sg4
F25.765546967559526
ssI8425
(dp469
g2
V2011_001566.jpg
p470
sg4
F34.25259420628375
ssI8426
(dp471
g2
V2008_001346.jpg
p472
sg4
F22.52835150396263
ssI8427
(dp473
g2
V2010_002128.jpg
p474
sg4
F29.456396441059095
ssI8428
(dp475
g2
V2008_003829.jpg
p476
sg4
F23.277919601608666
ssI8429
(dp477
g2
V2009_003858.jpg
p478
sg4
F26.432505714379804
ssI8430
(dp479
g2
V2008_001089.jpg
p480
sg4
F14.640114536624065
ssI8431
(dp481
g2
V2010_001754.jpg
p482
sg4
F21.836713940782506
ssI8432
(dp483
g2
V2008_004036.jpg
p484
sg4
F19.446156687645157
ssI6433
(dp485
g2
V2008_004353.jpg
p486
sg4
F27.436787538845245
ssI6434
(dp487
g2
V2008_006121.jpg
p488
sg4
F30.384187271419634
ssI6435
(dp489
g2
V2009_004601.jpg
p490
sg4
F25.421374717524866
ssI6436
(dp491
g2
V2011_001662.jpg
p492
sg4
F26.380756498446097
ssI6437
(dp493
g2
V2009_000105.jpg
p494
sg4
F22.011984320655554
ssI6438
(dp495
g2
V2009_001945.jpg
p496
sg4
F27.467528671439204
ssI6439
(dp497
g2
V2010_000502.jpg
p498
sg4
F25.367270454654353
ssI6440
(dp499
g2
V2009_001188.jpg
p500
sg4
F29.867611224786188
ssI6441
(dp501
g2
V2008_003497.jpg
p502
sg4
F25.25794423965031
ssI6442
(dp503
g2
V2010_002887.jpg
p504
sg4
F26.251781193466012
ssI6443
(dp505
g2
V2009_000503.jpg
p506
sg4
F18.334785738322527
ssI6444
(dp507
g2
V2010_003016.jpg
p508
sg4
F33.74155257692102
ssI6445
(dp509
g2
V2010_001273.jpg
p510
sg4
F21.718486131544278
ssI6446
(dp511
g2
V2008_007471.jpg
p512
sg4
F15.104499482660282
ssI6447
(dp513
g2
V2008_006078.jpg
p514
sg4
F28.706285703329964
ssI6448
(dp515
g2
V2008_007219.jpg
p516
sg4
F26.920136717906804
ssI6449
(dp517
g2
V2010_000088.jpg
p518
sg4
F17.8847337366165
ssI6450
(dp519
g2
V2011_001549.jpg
p520
sg4
F20.92910981400656
ssI6451
(dp521
g2
V2008_005895.jpg
p522
sg4
F16.28906064005461
ssI6452
(dp523
g2
V2009_000647.jpg
p524
sg4
F18.055032753732515
ssI6453
(dp525
g2
V2008_007923.jpg
p526
sg4
F19.05734476753717
ssI6454
(dp527
g2
V2011_000276.jpg
p528
sg4
F24.749445907282027
ssI6455
(dp529
g2
V2008_003624.jpg
p530
sg4
F15.506561649695405
ssI6456
(dp531
g2
V2010_000974.jpg
p532
sg4
F26.943596076579905
ssI6457
(dp533
g2
V2008_006154.jpg
p534
sg4
F28.120697507344175
ssI6458
(dp535
g2
V2008_005691.jpg
p536
sg4
F26.02668309748464
ssI6459
(dp537
g2
V2010_005591.jpg
p538
sg4
F23.415535770193515
ssI6460
(dp539
g2
V2010_000170.jpg
p540
sg4
F21.590649196354786
ssI6461
(dp541
g2
V2010_002418.jpg
p542
sg4
F22.570670629423564
ssI6462
(dp543
g2
V2008_003860.jpg
p544
sg4
F22.815412598826367
ssI6463
(dp545
g2
V2009_002935.jpg
p546
sg4
F26.464228622891962
ssI6464
(dp547
g2
V2008_005991.jpg
p548
sg4
F26.576845244379346
ssI6465
(dp549
g2
V2010_003634.jpg
p550
sg4
F22.50882460419801
ssI6466
(dp551
g2
V2008_007009.jpg
p552
sg4
F25.723575132767696
ssI6467
(dp553
g2
V2009_003253.jpg
p554
sg4
F21.76112417913995
ssI6468
(dp555
g2
V2011_000666.jpg
p556
sg4
F31.701653079615213
ssI6469
(dp557
g2
V2008_003756.jpg
p558
sg4
F27.276272212423525
ssI6470
(dp559
g2
V2008_001525.jpg
p560
sg4
F33.20625011033022
ssI6471
(dp561
g2
V2008_008470.jpg
p562
sg4
F30.346694199538167
ssI6472
(dp563
g2
V2008_005090.jpg
p564
sg4
F29.60802649155393
ssI6473
(dp565
g2
V2011_001189.jpg
p566
sg4
F25.67806324440569
ssI6474
(dp567
g2
V2009_003453.jpg
p568
sg4
F29.19052926699173
ssI6475
(dp569
g2
V2008_004616.jpg
p570
sg4
F21.875192349851268
ssI6476
(dp571
g2
V2008_003768.jpg
p572
sg4
F27.462323319625
ssI6477
(dp573
g2
V2009_004713.jpg
p574
sg4
F20.012393632878638
ssI6478
(dp575
g2
V2011_000743.jpg
p576
sg4
F22.854584490669684
ssI6479
(dp577
g2
V2011_000219.jpg
p578
sg4
F22.18799463665754
ssI6480
(dp579
g2
V2009_003375.jpg
p580
sg4
F20.18249611516345
ssI6481
(dp581
g2
V2008_006034.jpg
p582
sg4
F20.012722206539962
ssI6482
(dp583
g2
V2009_003333.jpg
p584
sg4
F26.819451882288753
ssI6483
(dp585
g2
V2010_005753.jpg
p586
sg4
F19.011001039958995
ssI6484
(dp587
g2
V2009_000203.jpg
p588
sg4
F26.820832181597304
ssI6485
(dp589
g2
V2009_001163.jpg
p590
sg4
F22.542860014269603
ssI6486
(dp591
g2
V2008_003265.jpg
p592
sg4
F25.029321701691984
ssI6487
(dp593
g2
V2008_005902.jpg
p594
sg4
F26.930317353640216
ssI6488
(dp595
g2
V2010_003127.jpg
p596
sg4
F26.77705292242071
ssI6489
(dp597
g2
V2009_000716.jpg
p598
sg4
F20.537353537648347
ssI6490
(dp599
g2
V2009_001554.jpg
p600
sg4
F16.751819636661317
ssI6491
(dp601
g2
V2009_000771.jpg
p602
sg4
F20.29425541553825
ssI6492
(dp603
g2
V2008_002640.jpg
p604
sg4
F29.073534169936657
ssI6493
(dp605
g2
V2010_005885.jpg
p606
sg4
F20.074686131837286
ssI6494
(dp607
g2
V2008_007745.jpg
p608
sg4
F32.959390221443385
ssI6495
(dp609
g2
V2009_003363.jpg
p610
sg4
F28.187352102840592
ssI6496
(dp611
g2
V2010_000947.jpg
p612
sg4
F26.77475248033755
ssI6497
(dp613
g2
V2009_001194.jpg
p614
sg4
F30.78673122339991
ssI6498
(dp615
g2
V2009_001590.jpg
p616
sg4
F25.843357787615094
ssI6499
(dp617
g2
V2008_008421.jpg
p618
sg4
F23.481160101297498
ssI6500
(dp619
g2
V2010_002955.jpg
p620
sg4
F24.06988450946579
ssI6501
(dp621
g2
V2009_002406.jpg
p622
sg4
F32.14644030013814
ssI6502
(dp623
g2
V2008_007042.jpg
p624
sg4
F23.087199639661307
ssI6503
(dp625
g2
V2008_002368.jpg
p626
sg4
F26.6515593747987
ssI6504
(dp627
g2
V2009_004568.jpg
p628
sg4
F27.203244638119447
ssI6505
(dp629
g2
V2009_002281.jpg
p630
sg4
F23.775973813664823
ssI6506
(dp631
g2
V2010_004318.jpg
p632
sg4
F14.903180736917381
ssI6507
(dp633
g2
V2008_003039.jpg
p634
sg4
F21.079904116165785
ssI6508
(dp635
g2
V2009_002744.jpg
p636
sg4
F25.159977869117423
ssI6509
(dp637
g2
V2011_000017.jpg
p638
sg4
F26.189134866126512
ssI6510
(dp639
g2
V2008_005313.jpg
p640
sg4
F22.72835116192859
ssI6511
(dp641
g2
V2010_003014.jpg
p642
sg4
F31.450219861710238
ssI6512
(dp643
g2
V2010_005758.jpg
p644
sg4
F32.93233064470861
ssI6513
(dp645
g2
V2008_004528.jpg
p646
sg4
F26.43576018581495
ssI6514
(dp647
g2
V2009_003530.jpg
p648
sg4
F20.529451477248333
ssI6515
(dp649
g2
V2011_002831.jpg
p650
sg4
F22.789849733974634
ssI6516
(dp651
g2
V2010_000799.jpg
p652
sg4
F19.3007490066665
ssI6517
(dp653
g2
V2008_002269.jpg
p654
sg4
F30.234591321250146
ssI6518
(dp655
g2
V2010_001501.jpg
p656
sg4
F30.802253178232036
ssI6519
(dp657
g2
V2008_001823.jpg
p658
sg4
F24.007703619786643
ssI6520
(dp659
g2
V2010_005493.jpg
p660
sg4
F23.50959697913147
ssI6521
(dp661
g2
V2008_002852.jpg
p662
sg4
F30.18190313540911
ssI6522
(dp663
g2
V2010_005620.jpg
p664
sg4
F31.315147542734806
ssI6523
(dp665
g2
V2008_003989.jpg
p666
sg4
F31.71884713010355
ssI6524
(dp667
g2
V2010_004275.jpg
p668
sg4
F28.002053740215874
ssI6525
(dp669
g2
V2008_002652.jpg
p670
sg4
F23.92518165567334
ssI6526
(dp671
g2
V2010_003781.jpg
p672
sg4
F26.167383763876472
ssI6527
(dp673
g2
V2008_003464.jpg
p674
sg4
F19.72420040844229
ssI6528
(dp675
g2
V2010_001973.jpg
p676
sg4
F21.404490748991254
ssI6529
(dp677
g2
V2010_003419.jpg
p678
sg4
F28.66706520443793
ssI6530
(dp679
g2
V2009_002487.jpg
p680
sg4
F21.568365208387856
ssI6531
(dp681
g2
V2010_003233.jpg
p682
sg4
F22.082045870688386
ssI6532
(dp683
g2
V2010_002378.jpg
p684
sg4
F23.961772187554086
ssI6533
(dp685
g2
V2008_001758.jpg
p686
sg4
F26.79661318305277
ssI6534
(dp687
g2
V2009_003396.jpg
p688
sg4
F24.487385777072134
ssI6535
(dp689
g2
V2008_005601.jpg
p690
sg4
F28.520398802364245
ssI6536
(dp691
g2
V2008_006566.jpg
p692
sg4
F25.950687595260195
ssI6537
(dp693
g2
V2008_005255.jpg
p694
sg4
F26.07482283244853
ssI6538
(dp695
g2
V2010_004546.jpg
p696
sg4
F25.005717643551723
ssI6539
(dp697
g2
V2009_004822.jpg
p698
sg4
F23.213751039619083
ssI6540
(dp699
g2
V2010_002728.jpg
p700
sg4
F30.402318731439472
ssI6541
(dp701
g2
V2009_001751.jpg
p702
sg4
F29.971879878734466
ssI6542
(dp703
g2
V2008_000705.jpg
p704
sg4
F30.958055456079503
ssI6543
(dp705
g2
V2010_001405.jpg
p706
sg4
F29.216512737189472
ssI6544
(dp707
g2
V2008_004540.jpg
p708
sg4
F22.05652294256381
ssI6545
(dp709
g2
V2011_002965.jpg
p710
sg4
F22.466212244086805
ssI6546
(dp711
g2
V2009_003323.jpg
p712
sg4
F28.639596481143176
ssI6547
(dp713
g2
V2010_000744.jpg
p714
sg4
F26.744836943711398
ssI6548
(dp715
g2
V2008_008607.jpg
p716
sg4
F32.02068990743675
ssI6549
(dp717
g2
V2009_002628.jpg
p718
sg4
F24.944467782419473
ssI6550
(dp719
g2
V2008_006585.jpg
p720
sg4
F24.440096386316
ssI6551
(dp721
g2
V2008_006767.jpg
p722
sg4
F32.6033094680301
ssI6552
(dp723
g2
V2009_002464.jpg
p724
sg4
F26.763962905137646
ssI6553
(dp725
g2
V2010_000069.jpg
p726
sg4
F19.177253473682665
ssI6554
(dp727
g2
V2008_008623.jpg
p728
sg4
F22.50484907949137
ssI6555
(dp729
g2
V2010_001402.jpg
p730
sg4
F20.788569217822673
ssI6556
(dp731
g2
V2009_003115.jpg
p732
sg4
F32.618029570842836
ssI6557
(dp733
g2
V2008_007915.jpg
p734
sg4
F25.34653183219679
ssI6558
(dp735
g2
V2009_004903.jpg
p736
sg4
F23.67229060260788
ssI6559
(dp737
g2
V2009_000763.jpg
p738
sg4
F22.917834981937794
ssI6560
(dp739
g2
V2011_002566.jpg
p740
sg4
F21.86770116668796
ssI6561
(dp741
g2
V2010_005257.jpg
p742
sg4
F20.04157456724004
ssI6562
(dp743
g2
V2010_001817.jpg
p744
sg4
F30.731309475195054
ssI6563
(dp745
g2
V2010_003483.jpg
p746
sg4
F21.67285052810954
ssI6564
(dp747
g2
V2010_001520.jpg
p748
sg4
F19.73515382198847
ssI6565
(dp749
g2
V2009_003373.jpg
p750
sg4
F15.57404718915007
ssI6566
(dp751
g2
V2008_006240.jpg
p752
sg4
F22.482196967387853
ssI6567
(dp753
g2
V2010_004223.jpg
p754
sg4
F16.606806579152444
ssI6568
(dp755
g2
V2010_003270.jpg
p756
sg4
F23.272027991606397
ssI6569
(dp757
g2
V2008_002847.jpg
p758
sg4
F25.670399988929763
ssI6570
(dp759
g2
V2008_005750.jpg
p760
sg4
F29.201869461183062
ssI6571
(dp761
g2
V2009_004108.jpg
p762
sg4
F19.441054928774975
ssI6572
(dp763
g2
V2009_002586.jpg
p764
sg4
F27.320417601082216
ssI6573
(dp765
g2
V2008_006718.jpg
p766
sg4
F29.227105297158353
ssI6574
(dp767
g2
V2009_002465.jpg
p768
sg4
F19.840306010235043
ssI6575
(dp769
g2
V2010_002055.jpg
p770
sg4
F31.510781475802844
ssI6576
(dp771
g2
V2011_000713.jpg
p772
sg4
F23.876468556659475
ssI6577
(dp773
g2
V2009_001498.jpg
p774
sg4
F22.353760292695956
ssI6578
(dp775
g2
V2009_002817.jpg
p776
sg4
F19.540506870025446
ssI6579
(dp777
g2
V2010_005016.jpg
p778
sg4
F17.126154609684278
ssI6580
(dp779
g2
V2010_003290.jpg
p780
sg4
F26.560581932184256
ssI6581
(dp781
g2
V2009_001916.jpg
p782
sg4
F25.269515882421718
ssI6582
(dp783
g2
V2008_001020.jpg
p784
sg4
F24.875122255020905
ssI6583
(dp785
g2
V2009_001154.jpg
p786
sg4
F23.806116326743954
ssI6584
(dp787
g2
V2011_000780.jpg
p788
sg4
F22.269121690345663
ssI6585
(dp789
g2
V2010_000484.jpg
p790
sg4
F16.701114191625635
ssI6586
(dp791
g2
V2009_000602.jpg
p792
sg4
F26.969344211484785
ssI6587
(dp793
g2
V2010_003300.jpg
p794
sg4
F26.03788030150899
ssI6588
(dp795
g2
V2008_008246.jpg
p796
sg4
F30.2400936638934
ssI6589
(dp797
g2
V2009_000124.jpg
p798
sg4
F25.636096876415113
ssI6590
(dp799
g2
V2008_004015.jpg
p800
sg4
F24.142571940642398
ssI6591
(dp801
g2
V2008_004614.jpg
p802
sg4
F31.305135769190457
ssI6592
(dp803
g2
V2008_006662.jpg
p804
sg4
F29.498352171900983
ssI6593
(dp805
g2
V2010_004554.jpg
p806
sg4
F26.881094179346228
ssI6594
(dp807
g2
V2008_003835.jpg
p808
sg4
F25.708523576971995
ssI6595
(dp809
g2
V2010_004129.jpg
p810
sg4
F15.846236980044008
ssI6596
(dp811
g2
V2010_003947.jpg
p812
sg4
F26.238785012802634
ssI6597
(dp813
g2
V2008_007840.jpg
p814
sg4
F27.798224457432042
ssI6598
(dp815
g2
V2009_002094.jpg
p816
sg4
F29.75064735627768
ssI6599
(dp817
g2
V2009_005061.jpg
p818
sg4
F23.98222474231864
ssI6600
(dp819
g2
V2010_001188.jpg
p820
sg4
F27.82477948484486
ssI6601
(dp821
g2
V2009_000684.jpg
p822
sg4
F20.067831928157947
ssI6602
(dp823
g2
V2008_008585.jpg
p824
sg4
F21.303579686524493
ssI6603
(dp825
g2
V2010_000792.jpg
p826
sg4
F29.276302306620725
ssI6604
(dp827
g2
V2010_004662.jpg
p828
sg4
F21.19862041753271
ssI6605
(dp829
g2
V2009_003098.jpg
p830
sg4
F23.157691887132387
ssI6606
(dp831
g2
V2011_002143.jpg
p832
sg4
F29.866907511587144
ssI6607
(dp833
g2
V2010_004423.jpg
p834
sg4
F29.739677956098852
ssI6608
(dp835
g2
V2010_001254.jpg
p836
sg4
F30.193617848260875
ssI6609
(dp837
g2
V2008_008131.jpg
p838
sg4
F29.006657370615198
ssI6610
(dp839
g2
V2011_001060.jpg
p840
sg4
F29.200169335534397
ssI6611
(dp841
g2
V2008_003838.jpg
p842
sg4
F17.39857057569382
ssI6612
(dp843
g2
V2009_001270.jpg
p844
sg4
F20.122073650010574
ssI6613
(dp845
g2
V2010_002958.jpg
p846
sg4
F14.213501814359315
ssI6614
(dp847
g2
V2010_003244.jpg
p848
sg4
F23.897699401325042
ssI6615
(dp849
g2
V2010_002431.jpg
p850
sg4
F24.14339110496317
ssI6616
(dp851
g2
V2008_001432.jpg
p852
sg4
F25.502904988684488
ssI6617
(dp853
g2
V2009_002083.jpg
p854
sg4
F29.81103395792174
ssI6618
(dp855
g2
V2008_000672.jpg
p856
sg4
F19.19210763482867
ssI6619
(dp857
g2
V2008_003280.jpg
p858
sg4
F26.76296406648404
ssI6620
(dp859
g2
V2010_002845.jpg
p860
sg4
F19.681549466966125
ssI6621
(dp861
g2
V2010_005898.jpg
p862
sg4
F23.223810525194555
ssI6622
(dp863
g2
V2010_000536.jpg
p864
sg4
F31.541664374405347
ssI6623
(dp865
g2
V2008_000931.jpg
p866
sg4
F21.665061541326896
ssI6624
(dp867
g2
V2010_005806.jpg
p868
sg4
F20.727915613051756
ssI6625
(dp869
g2
V2010_005840.jpg
p870
sg4
F24.711181898038518
ssI6626
(dp871
g2
V2010_002400.jpg
p872
sg4
F27.414176090235934
ssI6627
(dp873
g2
V2009_001642.jpg
p874
sg4
F24.999794948546093
ssI6628
(dp875
g2
V2010_005273.jpg
p876
sg4
F28.10858012080646
ssI6629
(dp877
g2
V2009_005070.jpg
p878
sg4
F22.507616511250397
ssI6630
(dp879
g2
V2010_001313.jpg
p880
sg4
F21.445738017353026
ssI6631
(dp881
g2
V2009_003537.jpg
p882
sg4
F27.630788242826824
ssI6632
(dp883
g2
V2011_000224.jpg
p884
sg4
F17.316646037114563
ssI6633
(dp885
g2
V2011_001987.jpg
p886
sg4
F28.75363046268824
ssI6634
(dp887
g2
V2010_004661.jpg
p888
sg4
F30.17163057532565
ssI6635
(dp889
g2
V2009_005024.jpg
p890
sg4
F23.368457245487384
ssI6636
(dp891
g2
V2011_001167.jpg
p892
sg4
F27.662212546646085
ssI6637
(dp893
g2
V2009_003793.jpg
p894
sg4
F23.34974001889096
ssI6638
(dp895
g2
V2008_008254.jpg
p896
sg4
F26.127219927477203
ssI6639
(dp897
g2
V2009_004830.jpg
p898
sg4
F30.719138386857846
ssI6640
(dp899
g2
V2009_000655.jpg
p900
sg4
F21.67459738904059
ssI6641
(dp901
g2
V2011_000036.jpg
p902
sg4
F34.133889572243696
ssI6642
(dp903
g2
V2008_001077.jpg
p904
sg4
F25.51621298816427
ssI6643
(dp905
g2
V2011_002308.jpg
p906
sg4
F24.584960773390193
ssI6644
(dp907
g2
V2008_003777.jpg
p908
sg4
F26.062769029498885
ssI6645
(dp909
g2
V2010_003329.jpg
p910
sg4
F20.965775321926714
ssI6646
(dp911
g2
V2009_000321.jpg
p912
sg4
F18.868247517585207
ssI6647
(dp913
g2
V2008_006323.jpg
p914
sg4
F25.05273373211565
ssI6648
(dp915
g2
V2008_003913.jpg
p916
sg4
F23.70556567754589
ssI6649
(dp917
g2
V2010_004191.jpg
p918
sg4
F22.912300772283203
ssI6650
(dp919
g2
V2009_001205.jpg
p920
sg4
F19.93035030374298
ssI6651
(dp921
g2
V2009_003951.jpg
p922
sg4
F28.89001495473717
ssI6652
(dp923
g2
V2010_003762.jpg
p924
sg4
F30.893969770189976
ssI6653
(dp925
g2
V2011_001538.jpg
p926
sg4
F24.270314050730477
ssI6654
(dp927
g2
V2009_004913.jpg
p928
sg4
F24.49461246468956
ssI6655
(dp929
g2
V2011_000344.jpg
p930
sg4
F22.65922931148297
ssI6656
(dp931
g2
V2009_005075.jpg
p932
sg4
F20.27220475155155
ssI6657
(dp933
g2
V2010_001937.jpg
p934
sg4
F15.86965149658086
ssI6658
(dp935
g2
V2010_003865.jpg
p936
sg4
F22.054504393548072
ssI6659
(dp937
g2
V2009_004093.jpg
p938
sg4
F24.440082955892407
ssI6660
(dp939
g2
V2011_001277.jpg
p940
sg4
F24.598182695885303
ssI6661
(dp941
g2
V2008_005618.jpg
p942
sg4
F26.267097190064046
ssI6662
(dp943
g2
V2010_001036.jpg
p944
sg4
F19.19481595003593
ssI6663
(dp945
g2
V2008_006143.jpg
p946
sg4
F24.67080472736511
ssI6664
(dp947
g2
V2008_005889.jpg
p948
sg4
F26.286630513448046
ssI6665
(dp949
g2
V2010_003688.jpg
p950
sg4
F27.047758363715403
ssI6666
(dp951
g2
V2009_002212.jpg
p952
sg4
F36.03100476357539
ssI6667
(dp953
g2
V2009_004594.jpg
p954
sg4
F19.030178152384888
ssI6668
(dp955
g2
V2008_002220.jpg
p956
sg4
F24.208543688237764
ssI6669
(dp957
g2
V2008_004837.jpg
p958
sg4
F26.317168872966462
ssI6670
(dp959
g2
V2010_005318.jpg
p960
sg4
F29.982067460147118
ssI6671
(dp961
g2
V2008_002003.jpg
p962
sg4
F23.293697334492606
ssI6672
(dp963
g2
V2008_005817.jpg
p964
sg4
F29.725909836780325
ssI6673
(dp965
g2
V2009_001237.jpg
p966
sg4
F28.42543790079472
ssI6674
(dp967
g2
V2010_003603.jpg
p968
sg4
F26.130215804016153
ssI6675
(dp969
g2
V2009_004125.jpg
p970
sg4
F31.870439191089773
ssI6676
(dp971
g2
V2009_001774.jpg
p972
sg4
F16.14256262091658
ssI6677
(dp973
g2
V2010_004283.jpg
p974
sg4
F18.92489238226142
ssI6678
(dp975
g2
V2009_003338.jpg
p976
sg4
F30.130898028557787
ssI6679
(dp977
g2
V2009_002374.jpg
p978
sg4
F20.138559565527522
ssI6680
(dp979
g2
V2011_000477.jpg
p980
sg4
F24.68788178860581
ssI6681
(dp981
g2
V2008_005763.jpg
p982
sg4
F27.15171498190192
ssI6682
(dp983
g2
V2009_002568.jpg
p984
sg4
F26.54542653385624
ssI6683
(dp985
g2
V2009_000894.jpg
p986
sg4
F32.27724523622923
ssI6684
(dp987
g2
V2010_002002.jpg
p988
sg4
F34.701186858130505
ssI6685
(dp989
g2
V2010_001690.jpg
p990
sg4
F23.0618842611583
ssI6686
(dp991
g2
V2009_002052.jpg
p992
sg4
F20.66519277020051
ssI6687
(dp993
g2
V2009_005068.jpg
p994
sg4
F25.23814434113279
ssI6688
(dp995
g2
V2008_001688.jpg
p996
sg4
F30.844946015550335
ssI6689
(dp997
g2
V2008_006746.jpg
p998
sg4
F20.934797432009187
ssI6690
(dp999
g2
V2009_000091.jpg
p1000
sg4
F20.34530992121205
ssI6691
(dp1001
g2
V2009_002676.jpg
p1002
sg4
F30.756856806877614
ssI6692
(dp1003
g2
V2010_002909.jpg
p1004
sg4
F23.976188345556995
ssI6693
(dp1005
g2
V2008_003673.jpg
p1006
sg4
F27.951101416395197
ssI6694
(dp1007
g2
V2008_005536.jpg
p1008
sg4
F24.129735014450524
ssI6695
(dp1009
g2
V2009_001852.jpg
p1010
sg4
F21.597824701253483
ssI6696
(dp1011
g2
V2011_003074.jpg
p1012
sg4
F20.508881463934912
ssI6697
(dp1013
g2
V2009_004905.jpg
p1014
sg4
F32.26412507420982
ssI6698
(dp1015
g2
V2009_004377.jpg
p1016
sg4
F27.39020842581725
ssI6699
(dp1017
g2
V2010_000020.jpg
p1018
sg4
F30.51924458286414
ssI6700
(dp1019
g2
V2010_001988.jpg
p1020
sg4
F15.25387149288317
ssI6701
(dp1021
g2
V2010_000970.jpg
p1022
sg4
F27.997312543716177
ssI6702
(dp1023
g2
V2011_002810.jpg
p1024
sg4
F35.63660420168498
ssI6703
(dp1025
g2
V2008_004018.jpg
p1026
sg4
F28.10224129212109
ssI6704
(dp1027
g2
V2011_001775.jpg
p1028
sg4
F22.601407024947612
ssI6705
(dp1029
g2
V2010_005986.jpg
p1030
sg4
F23.67059597575579
ssI6706
(dp1031
g2
V2009_000449.jpg
p1032
sg4
F29.283091574921396
ssI6707
(dp1033
g2
V2010_000904.jpg
p1034
sg4
F15.83019301912354
ssI6708
(dp1035
g2
V2010_000255.jpg
p1036
sg4
F26.911751400928758
ssI6709
(dp1037
g2
V2009_002317.jpg
p1038
sg4
F25.823518543144875
ssI6710
(dp1039
g2
V2011_002897.jpg
p1040
sg4
F33.936295427239585
ssI6711
(dp1041
g2
V2011_001259.jpg
p1042
sg4
F17.767879096164094
ssI6712
(dp1043
g2
V2009_003652.jpg
p1044
sg4
F28.22009684523097
ssI6713
(dp1045
g2
V2009_000122.jpg
p1046
sg4
F23.01983718370945
ssI6714
(dp1047
g2
V2009_001254.jpg
p1048
sg4
F21.73423640114926
ssI6715
(dp1049
g2
V2010_003303.jpg
p1050
sg4
F30.649549686895373
ssI6716
(dp1051
g2
V2008_001862.jpg
p1052
sg4
F31.05804957013649
ssI6717
(dp1053
g2
V2008_008538.jpg
p1054
sg4
F25.776049388121773
ssI6718
(dp1055
g2
V2008_006276.jpg
p1056
sg4
F12.390229780337766
ssI6719
(dp1057
g2
V2008_002477.jpg
p1058
sg4
F20.5219139372905
ssI6720
(dp1059
g2
V2008_007456.jpg
p1060
sg4
F26.08397683652002
ssI6721
(dp1061
g2
V2008_003965.jpg
p1062
sg4
F25.299073107199856
ssI6722
(dp1063
g2
V2010_005180.jpg
p1064
sg4
F25.531756699418757
ssI6723
(dp1065
g2
V2009_003768.jpg
p1066
sg4
F22.015749649528722
ssI6724
(dp1067
g2
V2010_002775.jpg
p1068
sg4
F29.77784058169977
ssI6725
(dp1069
g2
V2010_004425.jpg
p1070
sg4
F18.28847734190604
ssI6726
(dp1071
g2
V2008_003015.jpg
p1072
sg4
F17.110758415115267
ssI6727
(dp1073
g2
V2010_005143.jpg
p1074
sg4
F19.477767099969775
ssI6728
(dp1075
g2
V2010_004901.jpg
p1076
sg4
F27.044415233714453
ssI6729
(dp1077
g2
V2009_002064.jpg
p1078
sg4
F28.276654049264444
ssI6730
(dp1079
g2
V2011_002515.jpg
p1080
sg4
F27.317724865652718
ssI6731
(dp1081
g2
V2008_007281.jpg
p1082
sg4
F36.88958525496206
ssI6732
(dp1083
g2
V2010_002102.jpg
p1084
sg4
F22.367162954426554
ssI6733
(dp1085
g2
V2009_003261.jpg
p1086
sg4
F26.228667535787455
ssI6734
(dp1087
g2
V2008_006626.jpg
p1088
sg4
F19.32986458289654
ssI6735
(dp1089
g2
V2010_003729.jpg
p1090
sg4
F30.133244112833108
ssI6736
(dp1091
g2
V2011_001387.jpg
p1092
sg4
F29.56078732495587
ssI6737
(dp1093
g2
V2010_005542.jpg
p1094
sg4
F28.874416244148048
ssI6738
(dp1095
g2
V2010_005376.jpg
p1096
sg4
F20.343481532536543
ssI6739
(dp1097
g2
V2009_004631.jpg
p1098
sg4
F25.312175650117155
ssI6740
(dp1099
g2
V2010_006023.jpg
p1100
sg4
F12.53657278412077
ssI6741
(dp1101
g2
V2010_002793.jpg
p1102
sg4
F25.10986528039463
ssI6742
(dp1103
g2
V2010_005215.jpg
p1104
sg4
F22.17797411747069
ssI6743
(dp1105
g2
V2008_004290.jpg
p1106
sg4
F23.037649067216538
ssI6744
(dp1107
g2
V2009_000648.jpg
p1108
sg4
F23.19486157501578
ssI6745
(dp1109
g2
V2010_002498.jpg
p1110
sg4
F17.997748470093857
ssI6746
(dp1111
g2
V2009_002325.jpg
p1112
sg4
F19.83649163022217
ssI6747
(dp1113
g2
V2008_003409.jpg
p1114
sg4
F21.536935431739124
ssI6748
(dp1115
g2
V2009_002286.jpg
p1116
sg4
F23.731922310863247
ssI6749
(dp1117
g2
V2011_002128.jpg
p1118
sg4
F23.595100755583655
ssI6750
(dp1119
g2
V2009_002512.jpg
p1120
sg4
F27.3055388516766
ssI6751
(dp1121
g2
V2010_005676.jpg
p1122
sg4
F29.388628966118695
ssI6752
(dp1123
g2
V2008_005444.jpg
p1124
sg4
F14.904890287664626
ssI6753
(dp1125
g2
V2011_000744.jpg
p1126
sg4
F27.91352024801957
ssI6754
(dp1127
g2
V2011_001011.jpg
p1128
sg4
F29.094698868152737
ssI6755
(dp1129
g2
V2008_004008.jpg
p1130
sg4
F22.895043347166332
ssI6756
(dp1131
g2
V2010_005498.jpg
p1132
sg4
F21.563306168565887
ssI6757
(dp1133
g2
V2008_002784.jpg
p1134
sg4
F21.533916268502125
ssI6758
(dp1135
g2
V2010_001944.jpg
p1136
sg4
F16.747864937013063
ssI6759
(dp1137
g2
V2009_003191.jpg
p1138
sg4
F26.205556441974192
ssI6760
(dp1139
g2
V2011_000651.jpg
p1140
sg4
F24.177986435114306
ssI6761
(dp1141
g2
V2008_005903.jpg
p1142
sg4
F18.01566888749068
ssI6762
(dp1143
g2
V2008_002672.jpg
p1144
sg4
F30.394048445801573
ssI6763
(dp1145
g2
V2010_003218.jpg
p1146
sg4
F28.225227067794723
ssI6764
(dp1147
g2
V2008_007831.jpg
p1148
sg4
F28.602620233538932
ssI6765
(dp1149
g2
V2010_004660.jpg
p1150
sg4
F25.993866631157484
ssI6766
(dp1151
g2
V2011_002134.jpg
p1152
sg4
F29.491961419626673
ssI6767
(dp1153
g2
V2008_004224.jpg
p1154
sg4
F22.05981277641891
ssI6768
(dp1155
g2
V2008_007841.jpg
p1156
sg4
F27.359708300249984
ssI6769
(dp1157
g2
V2008_007321.jpg
p1158
sg4
F27.649765703341952
ssI6770
(dp1159
g2
V2009_002573.jpg
p1160
sg4
F28.45804030834067
ssI6771
(dp1161
g2
V2011_001988.jpg
p1162
sg4
F25.23458139644564
ssI6772
(dp1163
g2
V2011_002677.jpg
p1164
sg4
F24.66175091324759
ssI6773
(dp1165
g2
V2010_000444.jpg
p1166
sg4
F29.750959451348685
ssI6774
(dp1167
g2
V2008_004519.jpg
p1168
sg4
F29.547993332305115
ssI6775
(dp1169
g2
V2009_000281.jpg
p1170
sg4
F25.00750168207541
ssI6776
(dp1171
g2
V2010_004728.jpg
p1172
sg4
F22.54964824338069
ssI6777
(dp1173
g2
V2010_000262.jpg
p1174
sg4
F31.85412632657421
ssI6778
(dp1175
g2
V2008_008177.jpg
p1176
sg4
F28.185062271597634
ssI6779
(dp1177
g2
V2009_004593.jpg
p1178
sg4
F28.541853782625328
ssI6780
(dp1179
g2
V2010_005782.jpg
p1180
sg4
F24.223081494282514
ssI6781
(dp1181
g2
V2009_004042.jpg
p1182
sg4
F29.103939003029307
ssI6782
(dp1183
g2
V2009_004477.jpg
p1184
sg4
F21.484221349393778
ssI6783
(dp1185
g2
V2008_002218.jpg
p1186
sg4
F30.660587376670613
ssI6784
(dp1187
g2
V2008_007435.jpg
p1188
sg4
F28.21257142728626
ssI6785
(dp1189
g2
V2008_002813.jpg
p1190
sg4
F23.949385279469634
ssI6786
(dp1191
g2
V2008_007325.jpg
p1192
sg4
F32.02055341775848
ssI6787
(dp1193
g2
V2009_001581.jpg
p1194
sg4
F17.45403585170882
ssI6788
(dp1195
g2
V2008_007085.jpg
p1196
sg4
F24.037878038398354
ssI6789
(dp1197
g2
V2010_006028.jpg
p1198
sg4
F32.1276786857962
ssI6790
(dp1199
g2
V2008_003579.jpg
p1200
sg4
F24.20960647460737
ssI6791
(dp1201
g2
V2010_005733.jpg
p1202
sg4
F29.432586303244623
ssI6792
(dp1203
g2
V2008_000422.jpg
p1204
sg4
F18.99958614625701
ssI6793
(dp1205
g2
V2008_003180.jpg
p1206
sg4
F31.53785712566009
ssI6794
(dp1207
g2
V2011_001286.jpg
p1208
sg4
F35.0456122878418
ssI6795
(dp1209
g2
V2008_006534.jpg
p1210
sg4
F22.948658935317766
ssI6796
(dp1211
g2
V2009_003576.jpg
p1212
sg4
F27.225474010450718
ssI6797
(dp1213
g2
V2008_004482.jpg
p1214
sg4
F30.89167221982163
ssI6798
(dp1215
g2
V2008_003286.jpg
p1216
sg4
F25.425211197814914
ssI6799
(dp1217
g2
V2011_000917.jpg
p1218
sg4
F33.30160339716498
ssI6800
(dp1219
g2
V2011_003197.jpg
p1220
sg4
F28.00938144093626
ssI6801
(dp1221
g2
V2011_000071.jpg
p1222
sg4
F28.20989364449532
ssI6802
(dp1223
g2
V2009_003757.jpg
p1224
sg4
F28.513609293801906
ssI6803
(dp1225
g2
V2009_000658.jpg
p1226
sg4
F27.33091303245522
ssI6804
(dp1227
g2
V2008_002193.jpg
p1228
sg4
F25.861418293417355
ssI6805
(dp1229
g2
V2009_005194.jpg
p1230
sg4
F28.614623662489187
ssI6806
(dp1231
g2
V2008_005309.jpg
p1232
sg4
F20.22587910838021
ssI6807
(dp1233
g2
V2008_006950.jpg
p1234
sg4
F21.35797681475171
ssI6808
(dp1235
g2
V2010_005643.jpg
p1236
sg4
F29.21015366402935
ssI6809
(dp1237
g2
V2008_008724.jpg
p1238
sg4
F33.072436607343256
ssI6810
(dp1239
g2
V2011_002911.jpg
p1240
sg4
F21.03464691087457
ssI6811
(dp1241
g2
V2008_007432.jpg
p1242
sg4
F25.09663626606809
ssI6812
(dp1243
g2
V2008_007662.jpg
p1244
sg4
F26.284871781345956
ssI6813
(dp1245
g2
V2010_003823.jpg
p1246
sg4
F20.01455711645851
ssI6814
(dp1247
g2
V2010_005572.jpg
p1248
sg4
F31.076858313574167
ssI6815
(dp1249
g2
V2011_003025.jpg
p1250
sg4
F27.694091310580724
ssI6816
(dp1251
g2
V2009_001972.jpg
p1252
sg4
F15.20975978276442
ssI6817
(dp1253
g2
V2011_001318.jpg
p1254
sg4
F21.251306562722256
ssI6818
(dp1255
g2
V2009_001994.jpg
p1256
sg4
F25.888033622205473
ssI6819
(dp1257
g2
V2009_003222.jpg
p1258
sg4
F25.068320715501354
ssI6820
(dp1259
g2
V2008_000731.jpg
p1260
sg4
F25.200412225575974
ssI6821
(dp1261
g2
V2008_007648.jpg
p1262
sg4
F26.20380450173389
ssI6822
(dp1263
g2
V2011_000025.jpg
p1264
sg4
F24.461613422634084
ssI6823
(dp1265
g2
V2008_001271.jpg
p1266
sg4
F20.698721895869554
ssI6824
(dp1267
g2
V2010_002393.jpg
p1268
sg4
F20.131411086471942
ssI6825
(dp1269
g2
V2009_000171.jpg
p1270
sg4
F22.8702474298863
ssI6826
(dp1271
g2
V2008_001666.jpg
p1272
sg4
F27.45356345930993
ssI6827
(dp1273
g2
V2008_001428.jpg
p1274
sg4
F13.297571014255976
ssI6828
(dp1275
g2
V2009_004153.jpg
p1276
sg4
F16.285586205496266
ssI6829
(dp1277
g2
V2008_004607.jpg
p1278
sg4
F20.465741194973706
ssI6830
(dp1279
g2
V2011_002330.jpg
p1280
sg4
F30.11210344970704
ssI6831
(dp1281
g2
V2010_002930.jpg
p1282
sg4
F28.43129657713136
ssI6832
(dp1283
g2
V2009_004919.jpg
p1284
sg4
F21.295632503115904
ssI6833
(dp1285
g2
V2008_006458.jpg
p1286
sg4
F25.844942948255255
ssI6834
(dp1287
g2
V2010_003744.jpg
p1288
sg4
F21.46918353718069
ssI6835
(dp1289
g2
V2009_002400.jpg
p1290
sg4
F19.60147596295984
ssI6836
(dp1291
g2
V2010_002149.jpg
p1292
sg4
F23.602757246958202
ssI6837
(dp1293
g2
V2011_001642.jpg
p1294
sg4
F22.728500096031215
ssI6838
(dp1295
g2
V2009_003542.jpg
p1296
sg4
F18.37069775283891
ssI6839
(dp1297
g2
V2008_003856.jpg
p1298
sg4
F22.612471953615703
ssI6840
(dp1299
g2
V2010_005527.jpg
p1300
sg4
F23.015346153574164
ssI6841
(dp1301
g2
V2008_000371.jpg
p1302
sg4
F24.955068067731393
ssI6842
(dp1303
g2
V2008_008210.jpg
p1304
sg4
F31.577906396402632
ssI6843
(dp1305
g2
V2011_000077.jpg
p1306
sg4
F26.74797142721689
ssI6844
(dp1307
g2
V2009_003084.jpg
p1308
sg4
F20.074715872568312
ssI6845
(dp1309
g2
V2011_001607.jpg
p1310
sg4
F19.644048198222578
ssI6846
(dp1311
g2
V2010_000831.jpg
p1312
sg4
F25.140483180911172
ssI6847
(dp1313
g2
V2009_003549.jpg
p1314
sg4
F21.265477471076537
ssI6848
(dp1315
g2
V2008_005111.jpg
p1316
sg4
F22.925363646352576
ssI6849
(dp1317
g2
V2010_002937.jpg
p1318
sg4
F28.682323994345552
ssI6850
(dp1319
g2
V2010_004558.jpg
p1320
sg4
F27.34378211360808
ssI6851
(dp1321
g2
V2008_005563.jpg
p1322
sg4
F29.0787327362723
ssI6852
(dp1323
g2
V2011_002281.jpg
p1324
sg4
F27.2794001090132
ssI6853
(dp1325
g2
V2008_004898.jpg
p1326
sg4
F30.65385834866247
ssI6854
(dp1327
g2
V2009_004166.jpg
p1328
sg4
F26.92036368938442
ssI6855
(dp1329
g2
V2009_000457.jpg
p1330
sg4
F32.66430760971405
ssI6856
(dp1331
g2
V2008_004113.jpg
p1332
sg4
F42.592146688830475
ssI6857
(dp1333
g2
V2008_003202.jpg
p1334
sg4
F33.32788302063095
ssI6858
(dp1335
g2
V2009_003508.jpg
p1336
sg4
F27.66113689185456
ssI6859
(dp1337
g2
V2008_004545.jpg
p1338
sg4
F27.835013599798483
ssI6860
(dp1339
g2
V2008_000905.jpg
p1340
sg4
F21.617655778983888
ssI6861
(dp1341
g2
V2009_002229.jpg
p1342
sg4
F21.413328000418307
ssI6862
(dp1343
g2
V2011_002192.jpg
p1344
sg4
F22.12234471293154
ssI6863
(dp1345
g2
V2010_003609.jpg
p1346
sg4
F26.992390937954898
ssI6864
(dp1347
g2
V2011_000609.jpg
p1348
sg4
F27.269903789868746
ssI6865
(dp1349
g2
V2010_001312.jpg
p1350
sg4
F28.485489835596706
ssI6866
(dp1351
g2
V2010_001715.jpg
p1352
sg4
F25.61825972389748
ssI6867
(dp1353
g2
V2008_005735.jpg
p1354
sg4
F13.68599364669666
ssI6868
(dp1355
g2
V2008_001349.jpg
p1356
sg4
F27.143632574728677
ssI6869
(dp1357
g2
V2011_001825.jpg
p1358
sg4
F20.502847337420697
ssI6870
(dp1359
g2
V2009_000030.jpg
p1360
sg4
F21.93629482534572
ssI6871
(dp1361
g2
V2008_004213.jpg
p1362
sg4
F24.678415468817178
ssI6872
(dp1363
g2
V2010_003514.jpg
p1364
sg4
F23.06360753942958
ssI6873
(dp1365
g2
V2010_005830.jpg
p1366
sg4
F28.04223173019535
ssI6874
(dp1367
g2
V2009_004907.jpg
p1368
sg4
F23.65637626249851
ssI6875
(dp1369
g2
V2010_003400.jpg
p1370
sg4
F11.740304537002435
ssI6876
(dp1371
g2
V2008_001395.jpg
p1372
sg4
F19.979824629818193
ssI6877
(dp1373
g2
V2008_005673.jpg
p1374
sg4
F18.686905104738816
ssI6878
(dp1375
g2
V2009_001345.jpg
p1376
sg4
F28.995416607430723
ssI6879
(dp1377
g2
V2008_003983.jpg
p1378
sg4
F23.60927953904119
ssI6880
(dp1379
g2
V2009_004899.jpg
p1380
sg4
F25.70827072013723
ssI6881
(dp1381
g2
V2009_000748.jpg
p1382
sg4
F12.31601917082212
ssI6882
(dp1383
g2
V2009_003461.jpg
p1384
sg4
F24.676262734320048
ssI6883
(dp1385
g2
V2009_004092.jpg
p1386
sg4
F30.45665321649669
ssI6884
(dp1387
g2
V2010_004104.jpg
p1388
sg4
F15.231815769872265
ssI6885
(dp1389
g2
V2009_003718.jpg
p1390
sg4
F23.358977591041555
ssI6886
(dp1391
g2
V2010_004698.jpg
p1392
sg4
F28.931558906482685
ssI6887
(dp1393
g2
V2008_004445.jpg
p1394
sg4
F30.345415875169316
ssI6888
(dp1395
g2
V2010_001923.jpg
p1396
sg4
F30.971698860664635
ssI6889
(dp1397
g2
V2010_000222.jpg
p1398
sg4
F24.42858957275153
ssI6890
(dp1399
g2
V2010_002620.jpg
p1400
sg4
F34.96752773409758
ssI6891
(dp1401
g2
V2010_005595.jpg
p1402
sg4
F29.69412346844548
ssI6892
(dp1403
g2
V2010_002652.jpg
p1404
sg4
F29.314282548594115
ssI6893
(dp1405
g2
V2008_003542.jpg
p1406
sg4
F21.872916284088376
ssI6894
(dp1407
g2
V2011_001335.jpg
p1408
sg4
F33.33497246868347
ssI6895
(dp1409
g2
V2008_002153.jpg
p1410
sg4
F32.839786502680184
ssI6896
(dp1411
g2
V2009_003577.jpg
p1412
sg4
F28.48981507130942
ssI6897
(dp1413
g2
V2010_005681.jpg
p1414
sg4
F22.9943639090396
ssI6898
(dp1415
g2
V2009_001181.jpg
p1416
sg4
F32.67125861837568
ssI6899
(dp1417
g2
V2010_001399.jpg
p1418
sg4
F28.58888131040703
ssI6900
(dp1419
g2
V2008_005843.jpg
p1420
sg4
F15.582636457645592
ssI6901
(dp1421
g2
V2008_005957.jpg
p1422
sg4
F28.12348666970177
ssI6902
(dp1423
g2
V2008_004422.jpg
p1424
sg4
F21.319340031393462
ssI6903
(dp1425
g2
V2010_003248.jpg
p1426
sg4
F29.396369433299476
ssI6904
(dp1427
g2
V2010_005953.jpg
p1428
sg4
F20.863874451417537
ssI6905
(dp1429
g2
V2010_001291.jpg
p1430
sg4
F18.517380502609054
ssI6906
(dp1431
g2
V2009_003540.jpg
p1432
sg4
F24.812494189467397
ssI6907
(dp1433
g2
V2009_003846.jpg
p1434
sg4
F30.438601134814448
ssI6908
(dp1435
g2
V2010_001192.jpg
p1436
sg4
F20.9245283611572
ssI6909
(dp1437
g2
V2010_004710.jpg
p1438
sg4
F27.16628098102746
ssI6910
(dp1439
g2
V2008_002350.jpg
p1440
sg4
F29.814920313574746
ssI6911
(dp1441
g2
V2009_001902.jpg
p1442
sg4
F19.466024664585106
ssI6912
(dp1443
g2
V2010_004836.jpg
p1444
sg4
F24.469301680520726
ssI6913
(dp1445
g2
V2010_002853.jpg
p1446
sg4
F27.956533398475532
ssI6914
(dp1447
g2
V2011_001886.jpg
p1448
sg4
F19.685752299806754
ssI6915
(dp1449
g2
V2010_004618.jpg
p1450
sg4
F26.35693173363809
ssI6916
(dp1451
g2
V2010_001489.jpg
p1452
sg4
F23.370315596643046
ssI6917
(dp1453
g2
V2008_002917.jpg
p1454
sg4
F33.761990619512176
ssI6918
(dp1455
g2
V2009_003993.jpg
p1456
sg4
F20.75788536343626
ssI6919
(dp1457
g2
V2010_001497.jpg
p1458
sg4
F23.478151481962858
ssI6920
(dp1459
g2
V2008_008526.jpg
p1460
sg4
F24.986182809645822
ssI6921
(dp1461
g2
V2011_001591.jpg
p1462
sg4
F17.69816713203682
ssI6922
(dp1463
g2
V2008_003453.jpg
p1464
sg4
F24.70924004986228
ssI6923
(dp1465
g2
V2008_006481.jpg
p1466
sg4
F29.314233597971622
ssI6924
(dp1467
g2
V2010_001011.jpg
p1468
sg4
F27.888454972475042
ssI6925
(dp1469
g2
V2008_004230.jpg
p1470
sg4
F22.541682764951982
ssI6926
(dp1471
g2
V2009_005161.jpg
p1472
sg4
F22.855627776956826
ssI6927
(dp1473
g2
V2008_007124.jpg
p1474
sg4
F22.95740035226037
ssI6928
(dp1475
g2
V2009_002750.jpg
p1476
sg4
F30.141763061562205
ssI6929
(dp1477
g2
V2009_001740.jpg
p1478
sg4
F30.10373727883366
ssI6930
(dp1479
g2
V2008_007733.jpg
p1480
sg4
F20.585259952682446
ssI6931
(dp1481
g2
V2010_001680.jpg
p1482
sg4
F31.854545631964818
ssI6932
(dp1483
g2
V2011_001669.jpg
p1484
sg4
F27.2717522225571
ssI6933
(dp1485
g2
V2010_001829.jpg
p1486
sg4
F19.234401336670953
ssI6934
(dp1487
g2
V2008_004661.jpg
p1488
sg4
F29.247483266365705
ssI6935
(dp1489
g2
V2008_004024.jpg
p1490
sg4
F16.851988534700766
ssI6936
(dp1491
g2
V2011_001655.jpg
p1492
sg4
F33.24928513289893
ssI6937
(dp1493
g2
V2008_007256.jpg
p1494
sg4
F22.952349599397174
ssI6938
(dp1495
g2
V2008_007805.jpg
p1496
sg4
F20.224151670607466
ssI6939
(dp1497
g2
V2009_003105.jpg
p1498
sg4
F18.470439168474254
ssI6940
(dp1499
g2
V2011_001877.jpg
p1500
sg4
F22.063249091593846
ssI6941
(dp1501
g2
V2008_001564.jpg
p1502
sg4
F27.340347402943408
ssI6942
(dp1503
g2
V2008_001774.jpg
p1504
sg4
F13.2394482202269
ssI6943
(dp1505
g2
V2008_008701.jpg
p1506
sg4
F34.37716004725213
ssI6944
(dp1507
g2
V2009_000082.jpg
p1508
sg4
F21.53181210397427
ssI6945
(dp1509
g2
V2008_002441.jpg
p1510
sg4
F27.277396583898362
ssI6946
(dp1511
g2
V2008_000473.jpg
p1512
sg4
F25.591743548146177
ssI6947
(dp1513
g2
V2008_006500.jpg
p1514
sg4
F26.239809211388057
ssI6948
(dp1515
g2
V2009_000142.jpg
p1516
sg4
F27.00016102995141
ssI6949
(dp1517
g2
V2010_002679.jpg
p1518
sg4
F20.577280176550573
ssI6950
(dp1519
g2
V2008_007398.jpg
p1520
sg4
F25.10532473820449
ssI6951
(dp1521
g2
V2010_004553.jpg
p1522
sg4
F19.43821581030931
ssI6952
(dp1523
g2
V2008_006667.jpg
p1524
sg4
F26.67246731508814
ssI6953
(dp1525
g2
V2011_002455.jpg
p1526
sg4
F30.254534427504264
ssI6954
(dp1527
g2
V2010_001729.jpg
p1528
sg4
F29.59199065901148
ssI6955
(dp1529
g2
V2011_001689.jpg
p1530
sg4
F28.514598993477673
ssI6956
(dp1531
g2
V2009_005126.jpg
p1532
sg4
F25.082968449279612
ssI6957
(dp1533
g2
V2008_007513.jpg
p1534
sg4
F22.103255531111078
ssI6958
(dp1535
g2
V2010_004327.jpg
p1536
sg4
F28.610286184687887
ssI6959
(dp1537
g2
V2010_004931.jpg
p1538
sg4
F18.93272495417363
ssI6960
(dp1539
g2
V2009_004364.jpg
p1540
sg4
F28.730946256992283
ssI6961
(dp1541
g2
V2011_002098.jpg
p1542
sg4
F41.99714470321874
ssI6962
(dp1543
g2
V2008_004339.jpg
p1544
sg4
F29.607202226182455
ssI6963
(dp1545
g2
V2009_002932.jpg
p1546
sg4
F30.90039028264327
ssI6964
(dp1547
g2
V2010_000211.jpg
p1548
sg4
F25.51238951543491
ssI6965
(dp1549
g2
V2010_002674.jpg
p1550
sg4
F22.453637613478843
ssI6966
(dp1551
g2
V2011_003115.jpg
p1552
sg4
F25.577008710438058
ssI6967
(dp1553
g2
V2010_002026.jpg
p1554
sg4
F20.731944496655135
ssI6968
(dp1555
g2
V2008_008500.jpg
p1556
sg4
F33.96835298009744
ssI6969
(dp1557
g2
V2008_005049.jpg
p1558
sg4
F31.016073155641404
ssI6970
(dp1559
g2
V2009_001794.jpg
p1560
sg4
F24.458411674762594
ssI6971
(dp1561
g2
V2011_002776.jpg
p1562
sg4
F23.02619185466218
ssI6972
(dp1563
g2
V2011_000526.jpg
p1564
sg4
F22.56710304398743
ssI6973
(dp1565
g2
V2009_002853.jpg
p1566
sg4
F26.71341675920188
ssI6974
(dp1567
g2
V2008_006112.jpg
p1568
sg4
F26.56677485199701
ssI6975
(dp1569
g2
V2010_003398.jpg
p1570
sg4
F21.592726686028264
ssI6976
(dp1571
g2
V2009_000096.jpg
p1572
sg4
F26.457923733670725
ssI6977
(dp1573
g2
V2010_000645.jpg
p1574
sg4
F28.551381670215523
ssI6978
(dp1575
g2
V2008_001874.jpg
p1576
sg4
F23.77812604737127
ssI6979
(dp1577
g2
V2008_001248.jpg
p1578
sg4
F20.392548270156322
ssI6980
(dp1579
g2
V2009_005278.jpg
p1580
sg4
F27.798265038392742
ssI6981
(dp1581
g2
V2008_002767.jpg
p1582
sg4
F17.57010019485067
ssI6982
(dp1583
g2
V2011_002606.jpg
p1584
sg4
F16.796101888482873
ssI6983
(dp1585
g2
V2008_005574.jpg
p1586
sg4
F23.54747032628415
ssI6984
(dp1587
g2
V2011_001740.jpg
p1588
sg4
F29.477937812591996
ssI6985
(dp1589
g2
V2009_001279.jpg
p1590
sg4
F17.881104569900195
ssI6986
(dp1591
g2
V2008_008365.jpg
p1592
sg4
F25.823685642896415
ssI6987
(dp1593
g2
V2009_001782.jpg
p1594
sg4
F18.874156232375913
ssI6988
(dp1595
g2
V2008_004344.jpg
p1596
sg4
F24.41643988992852
ssI6989
(dp1597
g2
V2011_000823.jpg
p1598
sg4
F35.25427826049744
ssI6990
(dp1599
g2
V2009_005193.jpg
p1600
sg4
F16.71677871720765
ssI6991
(dp1601
g2
V2009_002377.jpg
p1602
sg4
F28.31308835407305
ssI6992
(dp1603
g2
V2010_004139.jpg
p1604
sg4
F28.198782180089044
ssI6993
(dp1605
g2
V2011_003151.jpg
p1606
sg4
F22.336562615136703
ssI6994
(dp1607
g2
V2011_001507.jpg
p1608
sg4
F25.61053294365114
ssI6995
(dp1609
g2
V2010_003649.jpg
p1610
sg4
F31.088182526458887
ssI6996
(dp1611
g2
V2009_002264.jpg
p1612
sg4
F20.841192455153333
ssI6997
(dp1613
g2
V2010_000556.jpg
p1614
sg4
F26.917702296793596
ssI6998
(dp1615
g2
V2008_005064.jpg
p1616
sg4
F20.180311415241377
ssI6999
(dp1617
g2
V2008_002968.jpg
p1618
sg4
F23.930669366040554
ssI7000
(dp1619
g2
V2009_004694.jpg
p1620
sg4
F31.151940032622374
ssI7001
(dp1621
g2
V2008_005465.jpg
p1622
sg4
F16.672713244469254
ssI7002
(dp1623
g2
V2008_004417.jpg
p1624
sg4
F26.28164733195104
ssI7003
(dp1625
g2
V2009_001155.jpg
p1626
sg4
F19.990061936109385
ssI7004
(dp1627
g2
V2008_004138.jpg
p1628
sg4
F18.76412105439385
ssI7005
(dp1629
g2
V2010_001147.jpg
p1630
sg4
F24.3433505538874
ssI7006
(dp1631
g2
V2010_001201.jpg
p1632
sg4
F27.38612309330573
ssI7007
(dp1633
g2
V2008_001863.jpg
p1634
sg4
F24.537534954650063
ssI7008
(dp1635
g2
V2010_001453.jpg
p1636
sg4
F27.76554008507896
ssI7009
(dp1637
g2
V2008_001547.jpg
p1638
sg4
F24.906833493687373
ssI7010
(dp1639
g2
V2011_002121.jpg
p1640
sg4
F21.517341949997526
ssI7011
(dp1641
g2
V2009_003690.jpg
p1642
sg4
F30.995667861532493
ssI7012
(dp1643
g2
V2009_004361.jpg
p1644
sg4
F25.540054000223193
ssI7013
(dp1645
g2
V2008_002732.jpg
p1646
sg4
F27.860835889891096
ssI7014
(dp1647
g2
V2009_002752.jpg
p1648
sg4
F22.016426007326327
ssI7015
(dp1649
g2
V2010_001934.jpg
p1650
sg4
F28.032306355415123
ssI7016
(dp1651
g2
V2010_002106.jpg
p1652
sg4
F23.570525182808616
ssI7017
(dp1653
g2
V2011_002590.jpg
p1654
sg4
F29.994034495278612
ssI7018
(dp1655
g2
V2010_004950.jpg
p1656
sg4
F29.961612854824423
ssI7019
(dp1657
g2
V2008_003313.jpg
p1658
sg4
F25.289148378389175
ssI7020
(dp1659
g2
V2011_000859.jpg
p1660
sg4
F26.356524915786363
ssI7021
(dp1661
g2
V2009_001052.jpg
p1662
sg4
F21.22922375597871
ssI7022
(dp1663
g2
V2008_004701.jpg
p1664
sg4
F17.887400077775414
ssI7023
(dp1665
g2
V2008_003203.jpg
p1666
sg4
F20.515117634611258
ssI7024
(dp1667
g2
V2008_002118.jpg
p1668
sg4
F24.770053292199975
ssI7025
(dp1669
g2
V2008_007882.jpg
p1670
sg4
F27.00949891421923
ssI7026
(dp1671
g2
V2010_003677.jpg
p1672
sg4
F22.276195221163913
ssI7027
(dp1673
g2
V2011_000496.jpg
p1674
sg4
F27.485577098258055
ssI7028
(dp1675
g2
V2008_006784.jpg
p1676
sg4
F17.0559093734335
ssI7029
(dp1677
g2
V2008_004771.jpg
p1678
sg4
F18.795889872687624
ssI7030
(dp1679
g2
V2009_005302.jpg
p1680
sg4
F23.289847921572548
ssI7031
(dp1681
g2
V2009_002595.jpg
p1682
sg4
F32.53735684361767
ssI7032
(dp1683
g2
V2008_001263.jpg
p1684
sg4
F26.689743273575765
ssI7033
(dp1685
g2
V2011_002074.jpg
p1686
sg4
F28.162212072733215
ssI7034
(dp1687
g2
V2009_004016.jpg
p1688
sg4
F19.652296606609077
ssI7035
(dp1689
g2
V2010_005208.jpg
p1690
sg4
F18.259168964400594
ssI7036
(dp1691
g2
V2008_003610.jpg
p1692
sg4
F24.548960673907537
ssI7037
(dp1693
g2
V2008_005519.jpg
p1694
sg4
F31.52068761393038
ssI7038
(dp1695
g2
V2010_003293.jpg
p1696
sg4
F26.40058929683022
ssI7039
(dp1697
g2
V2009_003456.jpg
p1698
sg4
F22.237601643835745
ssI7040
(dp1699
g2
V2009_000895.jpg
p1700
sg4
F28.39374758674253
ssI7041
(dp1701
g2
V2008_008684.jpg
p1702
sg4
F30.530816124618234
ssI7042
(dp1703
g2
V2011_001889.jpg
p1704
sg4
F28.420157068854007
ssI7043
(dp1705
g2
V2009_004436.jpg
p1706
sg4
F21.320245396611984
ssI7044
(dp1707
g2
V2008_004348.jpg
p1708
sg4
F22.901086087916894
ssI7045
(dp1709
g2
V2008_005045.jpg
p1710
sg4
F24.72148669165187
ssI7046
(dp1711
g2
V2010_003350.jpg
p1712
sg4
F20.539804974117526
ssI7047
(dp1713
g2
V2010_005777.jpg
p1714
sg4
F20.03675664604404
ssI7048
(dp1715
g2
V2011_001069.jpg
p1716
sg4
F20.370767277946403
ssI7049
(dp1717
g2
V2010_005683.jpg
p1718
sg4
F24.05713964937641
ssI7050
(dp1719
g2
V2008_005158.jpg
p1720
sg4
F30.92578920816219
ssI7051
(dp1721
g2
V2010_005217.jpg
p1722
sg4
F20.82173163074783
ssI7052
(dp1723
g2
V2010_002781.jpg
p1724
sg4
F29.391302457150278
ssI7053
(dp1725
g2
V2011_002318.jpg
p1726
sg4
F27.617992713644057
ssI7054
(dp1727
g2
V2008_006785.jpg
p1728
sg4
F17.561061727977936
ssI7055
(dp1729
g2
V2008_003057.jpg
p1730
sg4
F30.117445412114026
ssI7056
(dp1731
g2
V2008_003800.jpg
p1732
sg4
F26.339857717926698
ssI7057
(dp1733
g2
V2010_003269.jpg
p1734
sg4
F21.878568563249434
ssI7058
(dp1735
g2
V2008_001344.jpg
p1736
sg4
F21.04203651101067
ssI7059
(dp1737
g2
V2008_005375.jpg
p1738
sg4
F23.612769404146352
ssI7060
(dp1739
g2
V2009_004124.jpg
p1740
sg4
F31.977321035172626
ssI7061
(dp1741
g2
V2008_005867.jpg
p1742
sg4
F31.118687546941537
ssI7062
(dp1743
g2
V2010_000765.jpg
p1744
sg4
F29.95289111571105
ssI7063
(dp1745
g2
V2010_000031.jpg
p1746
sg4
F25.047897100071854
ssI7064
(dp1747
g2
V2008_004969.jpg
p1748
sg4
F26.43775873647169
ssI7065
(dp1749
g2
V2008_001203.jpg
p1750
sg4
F31.487502321795755
ssI7066
(dp1751
g2
V2011_001305.jpg
p1752
sg4
F34.91049974881145
ssI7067
(dp1753
g2
V2008_005572.jpg
p1754
sg4
F27.22160395829184
ssI7068
(dp1755
g2
V2009_003127.jpg
p1756
sg4
F19.103072841839797
ssI7069
(dp1757
g2
V2009_000547.jpg
p1758
sg4
F32.99612117209656
ssI7070
(dp1759
g2
V2008_007791.jpg
p1760
sg4
F30.16239421767278
ssI7071
(dp1761
g2
V2008_004221.jpg
p1762
sg4
F25.750268202127913
ssI7072
(dp1763
g2
V2009_002127.jpg
p1764
sg4
F27.997588239055556
ssI7073
(dp1765
g2
V2010_005997.jpg
p1766
sg4
F28.74406493664329
ssI7074
(dp1767
g2
V2009_002129.jpg
p1768
sg4
F30.658450112805443
ssI7075
(dp1769
g2
V2011_000509.jpg
p1770
sg4
F25.351737546284923
ssI7076
(dp1771
g2
V2010_000616.jpg
p1772
sg4
F18.135096838925413
ssI7077
(dp1773
g2
V2010_004400.jpg
p1774
sg4
F14.819930526451893
ssI7078
(dp1775
g2
V2009_002998.jpg
p1776
sg4
F20.95630728619632
ssI7079
(dp1777
g2
V2010_002794.jpg
p1778
sg4
F24.757215406660134
ssI7080
(dp1779
g2
V2011_002387.jpg
p1780
sg4
F24.14107525392159
ssI7081
(dp1781
g2
V2010_002050.jpg
p1782
sg4
F21.89618370354432
ssI7082
(dp1783
g2
V2011_002929.jpg
p1784
sg4
F24.556811192564847
ssI7083
(dp1785
g2
V2009_000515.jpg
p1786
sg4
F23.404656683675057
ssI7084
(dp1787
g2
V2010_005874.jpg
p1788
sg4
F27.247397561707142
ssI7085
(dp1789
g2
V2008_004662.jpg
p1790
sg4
F21.34069476902944
ssI7086
(dp1791
g2
V2009_005129.jpg
p1792
sg4
F24.373843388371093
ssI7087
(dp1793
g2
V2008_002248.jpg
p1794
sg4
F20.730891344720227
ssI7088
(dp1795
g2
V2010_003535.jpg
p1796
sg4
F22.718235581655737
ssI7089
(dp1797
g2
V2009_004366.jpg
p1798
sg4
F21.852666536582014
ssI7090
(dp1799
g2
V2011_003019.jpg
p1800
sg4
F24.34884261782855
ssI7091
(dp1801
g2
V2008_007739.jpg
p1802
sg4
F27.504762163583816
ssI7092
(dp1803
g2
V2009_001192.jpg
p1804
sg4
F24.143423184969436
ssI7093
(dp1805
g2
V2008_000972.jpg
p1806
sg4
F20.70787777535355
ssI7094
(dp1807
g2
V2008_004416.jpg
p1808
sg4
F22.698830950300614
ssI7095
(dp1809
g2
V2009_003118.jpg
p1810
sg4
F18.73842151076164
ssI7096
(dp1811
g2
V2008_008642.jpg
p1812
sg4
F23.435902253928504
ssI7097
(dp1813
g2
V2011_000322.jpg
p1814
sg4
F22.58101485449344
ssI7098
(dp1815
g2
V2009_000545.jpg
p1816
sg4
F22.079673483394217
ssI7099
(dp1817
g2
V2010_004503.jpg
p1818
sg4
F19.860747011516654
ssI7100
(dp1819
g2
V2010_005054.jpg
p1820
sg4
F20.21626352293297
ssI7101
(dp1821
g2
V2008_008676.jpg
p1822
sg4
F27.208884552958484
ssI7102
(dp1823
g2
V2009_000608.jpg
p1824
sg4
F33.058800596273656
ssI7103
(dp1825
g2
V2010_005954.jpg
p1826
sg4
F26.4645458905766
ssI7104
(dp1827
g2
V2009_002605.jpg
p1828
sg4
F19.33309403678058
ssI7105
(dp1829
g2
V2009_001565.jpg
p1830
sg4
F18.748603513211954
ssI7106
(dp1831
g2
V2008_008338.jpg
p1832
sg4
F25.83228388955595
ssI7107
(dp1833
g2
V2008_000853.jpg
p1834
sg4
F27.75019673903037
ssI7108
(dp1835
g2
V2008_005279.jpg
p1836
sg4
F22.812244103592256
ssI7109
(dp1837
g2
V2009_001875.jpg
p1838
sg4
F25.84972104423494
ssI7110
(dp1839
g2
V2008_001989.jpg
p1840
sg4
F17.43759417566074
ssI7111
(dp1841
g2
V2008_008753.jpg
p1842
sg4
F24.46147023426181
ssI7112
(dp1843
g2
V2010_004226.jpg
p1844
sg4
F28.623369789121398
ssI7113
(dp1845
g2
V2010_000705.jpg
p1846
sg4
F31.685316062100558
ssI7114
(dp1847
g2
V2009_002416.jpg
p1848
sg4
F27.88951233700074
ssI7115
(dp1849
g2
V2010_005019.jpg
p1850
sg4
F25.434957636732882
ssI7116
(dp1851
g2
V2008_006921.jpg
p1852
sg4
F18.414503851226357
ssI7117
(dp1853
g2
V2009_000445.jpg
p1854
sg4
F24.30681385858021
ssI7118
(dp1855
g2
V2008_001783.jpg
p1856
sg4
F19.628383047479893
ssI7119
(dp1857
g2
V2010_002601.jpg
p1858
sg4
F24.43596362680533
ssI7120
(dp1859
g2
V2011_002420.jpg
p1860
sg4
F26.90382792679921
ssI7121
(dp1861
g2
V2009_004779.jpg
p1862
sg4
F19.09625234571384
ssI7122
(dp1863
g2
V2011_000690.jpg
p1864
sg4
F26.734820786852527
ssI7123
(dp1865
g2
V2009_004530.jpg
p1866
sg4
F22.386269492534307
ssI7124
(dp1867
g2
V2009_000523.jpg
p1868
sg4
F21.181010736182625
ssI7125
(dp1869
g2
V2009_000923.jpg
p1870
sg4
F26.963780360191183
ssI7126
(dp1871
g2
V2008_005869.jpg
p1872
sg4
F17.24284349079059
ssI7127
(dp1873
g2
V2008_005625.jpg
p1874
sg4
F31.274151667944913
ssI7128
(dp1875
g2
V2008_008112.jpg
p1876
sg4
F24.137605894512628
ssI7129
(dp1877
g2
V2008_003604.jpg
p1878
sg4
F27.399417864684636
ssI7130
(dp1879
g2
V2008_006579.jpg
p1880
sg4
F22.50747063691547
ssI7131
(dp1881
g2
V2008_002082.jpg
p1882
sg4
F27.151201592923076
ssI7132
(dp1883
g2
V2009_000839.jpg
p1884
sg4
F20.227521383103678
ssI7133
(dp1885
g2
V2008_004394.jpg
p1886
sg4
F22.23119177043723
ssI7134
(dp1887
g2
V2009_003377.jpg
p1888
sg4
F22.14067782932455
ssI7135
(dp1889
g2
V2010_003453.jpg
p1890
sg4
F17.731696099482228
ssI7136
(dp1891
g2
V2009_005144.jpg
p1892
sg4
F22.598971648162085
ssI7137
(dp1893
g2
V2008_007305.jpg
p1894
sg4
F25.32795136342823
ssI7138
(dp1895
g2
V2008_007043.jpg
p1896
sg4
F33.27958235579427
ssI7139
(dp1897
g2
V2011_003216.jpg
p1898
sg4
F23.868766512294272
ssI7140
(dp1899
g2
V2008_004292.jpg
p1900
sg4
F23.68353912740543
ssI7141
(dp1901
g2
V2009_001422.jpg
p1902
sg4
F21.094574746613134
ssI7142
(dp1903
g2
V2011_001136.jpg
p1904
sg4
F25.360218700563347
ssI7143
(dp1905
g2
V2009_004357.jpg
p1906
sg4
F32.668636492248
ssI7144
(dp1907
g2
V2008_006925.jpg
p1908
sg4
F27.677142500371115
ssI7145
(dp1909
g2
V2009_003138.jpg
p1910
sg4
F28.421965757759992
ssI7146
(dp1911
g2
V2009_000466.jpg
p1912
sg4
F30.954010715704417
ssI7147
(dp1913
g2
V2009_001929.jpg
p1914
sg4
F21.25169619212629
ssI7148
(dp1915
g2
V2008_005243.jpg
p1916
sg4
F30.27872602402456
ssI7149
(dp1917
g2
V2010_005320.jpg
p1918
sg4
F27.37069341482983
ssI7150
(dp1919
g2
V2010_004042.jpg
p1920
sg4
F23.611239225332593
ssI7151
(dp1921
g2
V2011_001025.jpg
p1922
sg4
F33.36715274980126
ssI7152
(dp1923
g2
V2011_000305.jpg
p1924
sg4
F27.437616509358644
ssI7153
(dp1925
g2
V2008_006933.jpg
p1926
sg4
F23.306963103692276
ssI7154
(dp1927
g2
V2010_004655.jpg
p1928
sg4
F21.689418615491185
ssI7155
(dp1929
g2
V2009_001201.jpg
p1930
sg4
F18.69998549587011
ssI7156
(dp1931
g2
V2010_001256.jpg
p1932
sg4
F19.482340010277902
ssI7157
(dp1933
g2
V2008_003135.jpg
p1934
sg4
F20.7307118598456
ssI7158
(dp1935
g2
V2009_003705.jpg
p1936
sg4
F29.54730611359785
ssI7159
(dp1937
g2
V2011_000233.jpg
p1938
sg4
F25.21320631134514
ssI7160
(dp1939
g2
V2008_007879.jpg
p1940
sg4
F20.331835257378643
ssI7161
(dp1941
g2
V2010_002226.jpg
p1942
sg4
F33.120189050656904
ssI7162
(dp1943
g2
V2011_002193.jpg
p1944
sg4
F30.18288571652756
ssI7163
(dp1945
g2
V2010_001892.jpg
p1946
sg4
F25.35240269288954
ssI7164
(dp1947
g2
V2010_002948.jpg
p1948
sg4
F27.7909077812267
ssI7165
(dp1949
g2
V2008_001586.jpg
p1950
sg4
F23.773917003189997
ssI7166
(dp1951
g2
V2009_001357.jpg
p1952
sg4
F28.499941694136943
ssI7167
(dp1953
g2
V2008_003333.jpg
p1954
sg4
F26.471678353823688
ssI7168
(dp1955
g2
V2008_007973.jpg
p1956
sg4
F21.179050633756763
ssI7169
(dp1957
g2
V2008_002399.jpg
p1958
sg4
F18.521095970526147
ssI7170
(dp1959
g2
V2009_002010.jpg
p1960
sg4
F22.5543293105234
ssI7171
(dp1961
g2
V2011_002079.jpg
p1962
sg4
F29.82868289693347
ssI7172
(dp1963
g2
V2010_005906.jpg
p1964
sg4
F26.781114094911814
ssI7173
(dp1965
g2
V2010_001074.jpg
p1966
sg4
F15.697080535123284
ssI7174
(dp1967
g2
V2009_004856.jpg
p1968
sg4
F22.412247682478196
ssI7175
(dp1969
g2
V2010_005457.jpg
p1970
sg4
F24.544935932571136
ssI7176
(dp1971
g2
V2008_007907.jpg
p1972
sg4
F25.091189271308366
ssI7177
(dp1973
g2
V2008_002299.jpg
p1974
sg4
F24.479878678949337
ssI7178
(dp1975
g2
V2011_002661.jpg
p1976
sg4
F23.207597607514455
ssI7179
(dp1977
g2
V2009_001078.jpg
p1978
sg4
F25.257168880591344
ssI7180
(dp1979
g2
V2010_004210.jpg
p1980
sg4
F23.33882899462749
ssI7181
(dp1981
g2
V2010_000233.jpg
p1982
sg4
F26.103391996545476
ssI7182
(dp1983
g2
V2008_006401.jpg
p1984
sg4
F19.532847903186394
ssI7183
(dp1985
g2
V2010_002900.jpg
p1986
sg4
F19.373940426857732
ssI7184
(dp1987
g2
V2008_005356.jpg
p1988
sg4
F23.795177665260983
ssI7185
(dp1989
g2
V2008_006320.jpg
p1990
sg4
F19.388570515293935
ssI7186
(dp1991
g2
V2009_001781.jpg
p1992
sg4
F17.85460328370576
ssI7187
(dp1993
g2
V2011_000981.jpg
p1994
sg4
F23.217277814405897
ssI7188
(dp1995
g2
V2010_003239.jpg
p1996
sg4
F28.188521567028996
ssI7189
(dp1997
g2
V2011_002868.jpg
p1998
sg4
F23.486056729969093
ssI7190
(dp1999
g2
V2008_002037.jpg
p2000
sg4
F30.20203583105944
ssI7191
(dp2001
g2
V2009_003309.jpg
p2002
sg4
F19.09599573767647
ssI7192
(dp2003
g2
V2009_001255.jpg
p2004
sg4
F30.188004283471493
ssI7193
(dp2005
g2
V2008_004410.jpg
p2006
sg4
F20.60296461745579
ssI7194
(dp2007
g2
V2009_004780.jpg
p2008
sg4
F35.01958501776243
ssI7195
(dp2009
g2
V2009_002894.jpg
p2010
sg4
F26.52845381552307
ssI7196
(dp2011
g2
V2008_004892.jpg
p2012
sg4
F31.046352086599544
ssI7197
(dp2013
g2
V2009_002372.jpg
p2014
sg4
F29.317232335410118
ssI7198
(dp2015
g2
V2009_001203.jpg
p2016
sg4
F17.152193216016215
ssI7199
(dp2017
g2
V2009_003232.jpg
p2018
sg4
F20.957748315290193
ssI7200
(dp2019
g2
V2009_000939.jpg
p2020
sg4
F21.020838805689188
ssI7201
(dp2021
g2
V2011_000813.jpg
p2022
sg4
F21.297439475623875
ssI7202
(dp2023
g2
V2010_002469.jpg
p2024
sg4
F26.594945661706998
ssI7203
(dp2025
g2
V2011_002662.jpg
p2026
sg4
F23.741692700249125
ssI7204
(dp2027
g2
V2011_002419.jpg
p2028
sg4
F25.227662177587355
ssI7205
(dp2029
g2
V2008_007546.jpg
p2030
sg4
F20.637022693849065
ssI7206
(dp2031
g2
V2010_000912.jpg
p2032
sg4
F23.291940732506223
ssI7207
(dp2033
g2
V2010_003013.jpg
p2034
sg4
F22.846800413749772
ssI7208
(dp2035
g2
V2010_002022.jpg
p2036
sg4
F27.209724200644303
ssI7209
(dp2037
g2
V2008_004964.jpg
p2038
sg4
F27.79588882405355
ssI7210
(dp2039
g2
V2009_002893.jpg
p2040
sg4
F27.030694628253926
ssI7211
(dp2041
g2
V2010_002255.jpg
p2042
sg4
F20.48268521304705
ssI7212
(dp2043
g2
V2008_005214.jpg
p2044
sg4
F21.21766990164713
ssI7213
(dp2045
g2
V2009_003703.jpg
p2046
sg4
F23.48821591798699
ssI7214
(dp2047
g2
V2008_004457.jpg
p2048
sg4
F30.12771261812349
ssI7215
(dp2049
g2
V2008_001896.jpg
p2050
sg4
F24.262852514426932
ssI7216
(dp2051
g2
V2010_000541.jpg
p2052
sg4
F21.33942841503903
ssI7217
(dp2053
g2
V2008_007816.jpg
p2054
sg4
F21.01947615280542
ssI7218
(dp2055
g2
V2008_002793.jpg
p2056
sg4
F19.129695563436158
ssI7219
(dp2057
g2
V2008_003155.jpg
p2058
sg4
F21.200476149046743
ssI7220
(dp2059
g2
V2010_000727.jpg
p2060
sg4
F23.325242116481345
ssI7221
(dp2061
g2
V2011_002938.jpg
p2062
sg4
F21.765230468626022
ssI7222
(dp2063
g2
V2009_004001.jpg
p2064
sg4
F28.379521757605836
ssI7223
(dp2065
g2
V2010_004812.jpg
p2066
sg4
F22.38787621776083
ssI7224
(dp2067
g2
V2011_001902.jpg
p2068
sg4
F19.504215173999516
ssI7225
(dp2069
g2
V2008_003369.jpg
p2070
sg4
F15.731962722166626
ssI7226
(dp2071
g2
V2010_005361.jpg
p2072
sg4
F21.38322078791674
ssI7227
(dp2073
g2
V2009_005149.jpg
p2074
sg4
F36.53741806654381
ssI7228
(dp2075
g2
V2010_002827.jpg
p2076
sg4
F21.03003240581113
ssI7229
(dp2077
g2
V2010_000508.jpg
p2078
sg4
F29.925295621972786
ssI7230
(dp2079
g2
V2011_001400.jpg
p2080
sg4
F22.05844545265861
ssI7231
(dp2081
g2
V2011_000548.jpg
p2082
sg4
F30.96122100405093
ssI7232
(dp2083
g2
V2011_001624.jpg
p2084
sg4
F20.559862456798996
ssI7233
(dp2085
g2
V2009_004737.jpg
p2086
sg4
F16.98544233464372
ssI7234
(dp2087
g2
V2011_001440.jpg
p2088
sg4
F31.624523840834033
ssI7235
(dp2089
g2
V2009_001403.jpg
p2090
sg4
F25.754175283030232
ssI7236
(dp2091
g2
V2010_004311.jpg
p2092
sg4
F16.89110622016664
ssI7237
(dp2093
g2
V2011_000430.jpg
p2094
sg4
F18.8339693381903
ssI7238
(dp2095
g2
V2011_000954.jpg
p2096
sg4
F25.861150692712666
ssI7239
(dp2097
g2
V2011_003138.jpg
p2098
sg4
F27.991968157844138
ssI7240
(dp2099
g2
V2009_000137.jpg
p2100
sg4
F26.9405035763822
ssI7241
(dp2101
g2
V2009_002803.jpg
p2102
sg4
F20.194433628678272
ssI7242
(dp2103
g2
V2008_007817.jpg
p2104
sg4
F22.05234979462153
ssI7243
(dp2105
g2
V2008_005168.jpg
p2106
sg4
F30.792015071052184
ssI7244
(dp2107
g2
V2009_002624.jpg
p2108
sg4
F35.123040723271814
ssI7245
(dp2109
g2
V2008_007176.jpg
p2110
sg4
F16.86586762703701
ssI7246
(dp2111
g2
V2008_007623.jpg
p2112
sg4
F20.201137755508753
ssI7247
(dp2113
g2
V2010_003384.jpg
p2114
sg4
F25.456553448248545
ssI7248
(dp2115
g2
V2008_002418.jpg
p2116
sg4
F23.840935174864835
ssI7249
(dp2117
g2
V2008_004554.jpg
p2118
sg4
F22.205734216629015
ssI7250
(dp2119
g2
V2010_001206.jpg
p2120
sg4
F27.40196343658957
ssI7251
(dp2121
g2
V2010_003174.jpg
p2122
sg4
F23.58496767096253
ssI7252
(dp2123
g2
V2010_001691.jpg
p2124
sg4
F16.86296621161062
ssI7253
(dp2125
g2
V2009_000985.jpg
p2126
sg4
F19.445029781410806
ssI7254
(dp2127
g2
V2009_000632.jpg
p2128
sg4
F20.066620114893695
ssI7255
(dp2129
g2
V2011_001928.jpg
p2130
sg4
F27.593351295813477
ssI7256
(dp2131
g2
V2008_005702.jpg
p2132
sg4
F29.281237507374627
ssI7257
(dp2133
g2
V2010_000103.jpg
p2134
sg4
F27.07761334519163
ssI7258
(dp2135
g2
V2010_001743.jpg
p2136
sg4
F25.95769605535543
ssI7259
(dp2137
g2
V2008_001283.jpg
p2138
sg4
F32.32593504589308
ssI7260
(dp2139
g2
V2008_006881.jpg
p2140
sg4
F26.256928113500702
ssI7261
(dp2141
g2
V2010_000151.jpg
p2142
sg4
F20.128140869136985
ssI7262
(dp2143
g2
V2010_005133.jpg
p2144
sg4
F33.75817299309783
ssI7263
(dp2145
g2
V2009_004075.jpg
p2146
sg4
F24.27990391567556
ssI7264
(dp2147
g2
V2008_001563.jpg
p2148
sg4
F27.610746539104955
ssI7265
(dp2149
g2
V2010_000372.jpg
p2150
sg4
F21.396112354088157
ssI7266
(dp2151
g2
V2009_001809.jpg
p2152
sg4
F33.57985606640334
ssI7267
(dp2153
g2
V2008_004478.jpg
p2154
sg4
F24.73666143215361
ssI7268
(dp2155
g2
V2010_000675.jpg
p2156
sg4
F20.486276555163176
ssI7269
(dp2157
g2
V2010_004665.jpg
p2158
sg4
F28.010362722543388
ssI7270
(dp2159
g2
V2009_002002.jpg
p2160
sg4
F20.545069693918503
ssI7271
(dp2161
g2
V2010_001539.jpg
p2162
sg4
F28.05306960589008
ssI7272
(dp2163
g2
V2008_006703.jpg
p2164
sg4
F20.885436604139475
ssI7273
(dp2165
g2
V2008_001494.jpg
p2166
sg4
F20.846233698904772
ssI7274
(dp2167
g2
V2010_001921.jpg
p2168
sg4
F22.71589846250772
ssI7275
(dp2169
g2
V2010_002462.jpg
p2170
sg4
F35.49954364956412
ssI7276
(dp2171
g2
V2009_001784.jpg
p2172
sg4
F23.67073700924888
ssI7277
(dp2173
g2
V2008_003871.jpg
p2174
sg4
F21.292328628210438
ssI7278
(dp2175
g2
V2010_002020.jpg
p2176
sg4
F21.251934419895694
ssI7279
(dp2177
g2
V2010_003253.jpg
p2178
sg4
F19.835309157302905
ssI7280
(dp2179
g2
V2010_002030.jpg
p2180
sg4
F20.6107947224557
ssI7281
(dp2181
g2
V2009_003654.jpg
p2182
sg4
F24.393559622337445
ssI7282
(dp2183
g2
V2010_004067.jpg
p2184
sg4
F26.604023103295233
ssI7283
(dp2185
g2
V2010_001287.jpg
p2186
sg4
F27.85598077731464
ssI7284
(dp2187
g2
V2009_003007.jpg
p2188
sg4
F21.52892263051593
ssI7285
(dp2189
g2
V2009_002957.jpg
p2190
sg4
F23.75710997030603
ssI7286
(dp2191
g2
V2009_004406.jpg
p2192
sg4
F32.15680025357413
ssI7287
(dp2193
g2
V2011_001337.jpg
p2194
sg4
F27.378922288449292
ssI7288
(dp2195
g2
V2010_002054.jpg
p2196
sg4
F25.514534777496575
ssI7289
(dp2197
g2
V2010_004588.jpg
p2198
sg4
F26.919616307178263
ssI7290
(dp2199
g2
V2010_001395.jpg
p2200
sg4
F22.189749311823828
ssI7291
(dp2201
g2
V2008_005845.jpg
p2202
sg4
F28.961816980758506
ssI7292
(dp2203
g2
V2009_004170.jpg
p2204
sg4
F26.316534041365358
ssI7293
(dp2205
g2
V2010_000197.jpg
p2206
sg4
F21.34312967693234
ssI7294
(dp2207
g2
V2008_002625.jpg
p2208
sg4
F30.110106810462515
ssI7295
(dp2209
g2
V2010_002686.jpg
p2210
sg4
F30.189690252165818
ssI7296
(dp2211
g2
V2009_001674.jpg
p2212
sg4
F27.534648287278475
ssI7297
(dp2213
g2
V2008_002728.jpg
p2214
sg4
F25.686211194284468
ssI7298
(dp2215
g2
V2008_007287.jpg
p2216
sg4
F30.01667371575742
ssI7299
(dp2217
g2
V2008_001448.jpg
p2218
sg4
F20.985357159684494
ssI7300
(dp2219
g2
V2010_001863.jpg
p2220
sg4
F16.827520571430128
ssI7301
(dp2221
g2
V2009_001462.jpg
p2222
sg4
F32.449303572569875
ssI7302
(dp2223
g2
V2009_001812.jpg
p2224
sg4
F26.85795974532757
ssI7303
(dp2225
g2
V2010_000386.jpg
p2226
sg4
F27.228643063520565
ssI7304
(dp2227
g2
V2009_004369.jpg
p2228
sg4
F25.74901821763074
ssI7305
(dp2229
g2
V2008_006373.jpg
p2230
sg4
F30.49573788496621
ssI7306
(dp2231
g2
V2010_003887.jpg
p2232
sg4
F25.166015841815373
ssI7307
(dp2233
g2
V2009_000504.jpg
p2234
sg4
F20.838551794823506
ssI7308
(dp2235
g2
V2009_001074.jpg
p2236
sg4
F27.356745471235794
ssI7309
(dp2237
g2
V2008_007459.jpg
p2238
sg4
F24.80213981704552
ssI7310
(dp2239
g2
V2009_000757.jpg
p2240
sg4
F28.445829688821412
ssI7311
(dp2241
g2
V2008_006295.jpg
p2242
sg4
F33.940134374118166
ssI7312
(dp2243
g2
V2009_004323.jpg
p2244
sg4
F31.14447330418163
ssI7313
(dp2245
g2
V2009_000919.jpg
p2246
sg4
F19.25351959992476
ssI7314
(dp2247
g2
V2010_004628.jpg
p2248
sg4
F25.49939835811512
ssI7315
(dp2249
g2
V2009_001677.jpg
p2250
sg4
F27.91312263348737
ssI7316
(dp2251
g2
V2010_005755.jpg
p2252
sg4
F26.176051827128887
ssI7317
(dp2253
g2
V2009_005055.jpg
p2254
sg4
F22.953416274808188
ssI7318
(dp2255
g2
V2010_002068.jpg
p2256
sg4
F24.08500735577894
ssI7319
(dp2257
g2
V2009_001713.jpg
p2258
sg4
F24.985171880120298
ssI7320
(dp2259
g2
V2011_001779.jpg
p2260
sg4
F18.684730992524468
ssI7321
(dp2261
g2
V2010_002705.jpg
p2262
sg4
F27.449391178359026
ssI7322
(dp2263
g2
V2009_002883.jpg
p2264
sg4
F25.70373324037282
ssI7323
(dp2265
g2
V2011_000594.jpg
p2266
sg4
F22.104634839371236
ssI7324
(dp2267
g2
V2011_001799.jpg
p2268
sg4
F30.34900041528055
ssI7325
(dp2269
g2
V2009_002712.jpg
p2270
sg4
F24.811353033252484
ssI7326
(dp2271
g2
V2009_000557.jpg
p2272
sg4
F23.6988207881735
ssI7327
(dp2273
g2
V2009_004404.jpg
p2274
sg4
F27.238468568188516
ssI7328
(dp2275
g2
V2008_005191.jpg
p2276
sg4
F31.638336722980306
ssI7329
(dp2277
g2
V2008_005288.jpg
p2278
sg4
F15.614019717005354
ssI7330
(dp2279
g2
V2009_002308.jpg
p2280
sg4
F22.65065606198755
ssI7331
(dp2281
g2
V2010_000293.jpg
p2282
sg4
F27.580049784405546
ssI7332
(dp2283
g2
V2010_005475.jpg
p2284
sg4
F19.216837336704888
ssI7333
(dp2285
g2
V2010_001105.jpg
p2286
sg4
F26.586309541922972
ssI7334
(dp2287
g2
V2008_006989.jpg
p2288
sg4
F26.272152669492794
ssI7335
(dp2289
g2
V2011_002585.jpg
p2290
sg4
F23.672786875714312
ssI7336
(dp2291
g2
V2009_003491.jpg
p2292
sg4
F26.57067595421445
ssI7337
(dp2293
g2
V2009_004329.jpg
p2294
sg4
F26.74955664248033
ssI7338
(dp2295
g2
V2010_003856.jpg
p2296
sg4
F28.547994150869307
ssI7339
(dp2297
g2
V2009_004082.jpg
p2298
sg4
F26.180877286455626
ssI7340
(dp2299
g2
V2009_000846.jpg
p2300
sg4
F32.447184162785
ssI7341
(dp2301
g2
V2008_002908.jpg
p2302
sg4
F21.06179476301069
ssI7342
(dp2303
g2
V2009_004889.jpg
p2304
sg4
F18.161911450118957
ssI7343
(dp2305
g2
V2008_006272.jpg
p2306
sg4
F26.675634653274834
ssI7344
(dp2307
g2
V2009_000597.jpg
p2308
sg4
F33.658384586610296
ssI7345
(dp2309
g2
V2011_002760.jpg
p2310
sg4
F29.2374513625536
ssI7346
(dp2311
g2
V2011_000068.jpg
p2312
sg4
F25.10571208908367
ssI7347
(dp2313
g2
V2010_002956.jpg
p2314
sg4
F16.598874860824477
ssI7348
(dp2315
g2
V2011_001158.jpg
p2316
sg4
F26.832181001608134
ssI7349
(dp2317
g2
V2008_007842.jpg
p2318
sg4
F20.606085537824374
ssI7350
(dp2319
g2
V2010_005101.jpg
p2320
sg4
F13.350033322032772
ssI7351
(dp2321
g2
V2008_006028.jpg
p2322
sg4
F24.078575744676076
ssI7352
(dp2323
g2
V2009_001042.jpg
p2324
sg4
F29.520175506984398
ssI7353
(dp2325
g2
V2009_001915.jpg
p2326
sg4
F25.99664369427539
ssI7354
(dp2327
g2
V2009_004540.jpg
p2328
sg4
F22.458237777730826
ssI7355
(dp2329
g2
V2009_002445.jpg
p2330
sg4
F24.378327729745585
ssI7356
(dp2331
g2
V2010_000162.jpg
p2332
sg4
F24.726385906767664
ssI7357
(dp2333
g2
V2009_004504.jpg
p2334
sg4
F18.188991549193013
ssI7358
(dp2335
g2
V2010_003659.jpg
p2336
sg4
F26.609479439987027
ssI7359
(dp2337
g2
V2008_006730.jpg
p2338
sg4
F32.93067342944698
ssI7360
(dp2339
g2
V2008_008336.jpg
p2340
sg4
F24.375484142380746
ssI7361
(dp2341
g2
V2009_002536.jpg
p2342
sg4
F6.950419073748118
ssI7362
(dp2343
g2
V2008_005695.jpg
p2344
sg4
F25.35976304646965
ssI7363
(dp2345
g2
V2008_002234.jpg
p2346
sg4
F20.956606433416127
ssI7364
(dp2347
g2
V2010_005258.jpg
p2348
sg4
F24.13583710092456
ssI7365
(dp2349
g2
V2008_004142.jpg
p2350
sg4
F29.73299927389349
ssI7366
(dp2351
g2
V2009_000335.jpg
p2352
sg4
F26.898528679846645
ssI7367
(dp2353
g2
V2009_003801.jpg
p2354
sg4
F29.675218889353705
ssI7368
(dp2355
g2
V2010_005005.jpg
p2356
sg4
F25.74035630224137
ssI7369
(dp2357
g2
V2011_001605.jpg
p2358
sg4
F34.41600543331538
ssI7370
(dp2359
g2
V2008_002820.jpg
p2360
sg4
F20.76633331845792
ssI7371
(dp2361
g2
V2009_003524.jpg
p2362
sg4
F21.582552867637464
ssI7372
(dp2363
g2
V2008_001834.jpg
p2364
sg4
F32.50849439744055
ssI7373
(dp2365
g2
V2011_000229.jpg
p2366
sg4
F21.501811172238668
ssI7374
(dp2367
g2
V2008_005801.jpg
p2368
sg4
F29.46849171250886
ssI7375
(dp2369
g2
V2009_004351.jpg
p2370
sg4
F27.99242498508422
ssI7376
(dp2371
g2
V2010_001992.jpg
p2372
sg4
F28.997604876343768
ssI7377
(dp2373
g2
V2008_003667.jpg
p2374
sg4
F30.304936848913595
ssI7378
(dp2375
g2
V2008_006864.jpg
p2376
sg4
F29.723255523994034
ssI7379
(dp2377
g2
V2010_004084.jpg
p2378
sg4
F28.153211240628288
ssI7380
(dp2379
g2
V2010_000927.jpg
p2380
sg4
F18.334256220994895
ssI7381
(dp2381
g2
V2009_002110.jpg
p2382
sg4
F33.495859679533226
ssI7382
(dp2383
g2
V2011_001127.jpg
p2384
sg4
F23.10874350579643
ssI7383
(dp2385
g2
V2010_004231.jpg
p2386
sg4
F15.830708942989272
ssI7384
(dp2387
g2
V2011_001116.jpg
p2388
sg4
F29.77854418273715
ssI7385
(dp2389
g2
V2010_002668.jpg
p2390
sg4
F25.949800059775235
ssI7386
(dp2391
g2
V2011_001930.jpg
p2392
sg4
F18.813366535610786
ssI7387
(dp2393
g2
V2008_004147.jpg
p2394
sg4
F21.250327700569652
ssI7388
(dp2395
g2
V2010_003355.jpg
p2396
sg4
F27.249067166667025
ssI7389
(dp2397
g2
V2008_005650.jpg
p2398
sg4
F27.591662615407426
ssI7390
(dp2399
g2
V2011_002687.jpg
p2400
sg4
F25.68190726973706
ssI7391
(dp2401
g2
V2009_002836.jpg
p2402
sg4
F25.922980062478604
ssI7392
(dp2403
g2
V2008_005196.jpg
p2404
sg4
F26.48854451600519
ssI7393
(dp2405
g2
V2008_005878.jpg
p2406
sg4
F31.167936969796557
ssI7394
(dp2407
g2
V2010_005136.jpg
p2408
sg4
F31.060400948825823
ssI7395
(dp2409
g2
V2010_001891.jpg
p2410
sg4
F27.78110345843121
ssI7396
(dp2411
g2
V2010_003230.jpg
p2412
sg4
F20.265519991856785
ssI7397
(dp2413
g2
V2008_005881.jpg
p2414
sg4
F21.610302591197943
ssI7398
(dp2415
g2
V2009_005257.jpg
p2416
sg4
F32.632138351243334
ssI7399
(dp2417
g2
V2010_000015.jpg
p2418
sg4
F26.58933230506834
ssI7400
(dp2419
g2
V2008_003873.jpg
p2420
sg4
F28.49478842223862
ssI7401
(dp2421
g2
V2009_002960.jpg
p2422
sg4
F28.002215321121707
ssI7402
(dp2423
g2
V2010_002737.jpg
p2424
sg4
F25.687046764620757
ssI7403
(dp2425
g2
V2010_003679.jpg
p2426
sg4
F30.416166159734043
ssI7404
(dp2427
g2
V2011_000745.jpg
p2428
sg4
F27.967249067888858
ssI7405
(dp2429
g2
V2008_002624.jpg
p2430
sg4
F24.138922240123126
ssI7406
(dp2431
g2
V2009_002847.jpg
p2432
sg4
F21.29732263998299
ssI7407
(dp2433
g2
V2011_002582.jpg
p2434
sg4
F19.2391461352179
ssI7408
(dp2435
g2
V2009_002604.jpg
p2436
sg4
F13.644417789905445
ssI7409
(dp2437
g2
V2009_003430.jpg
p2438
sg4
F22.20231930457585
ssI7410
(dp2439
g2
V2008_002679.jpg
p2440
sg4
F27.542104515131136
ssI7411
(dp2441
g2
V2011_001040.jpg
p2442
sg4
F27.215596990241743
ssI7412
(dp2443
g2
V2008_002524.jpg
p2444
sg4
F27.32753990270673
ssI7413
(dp2445
g2
V2010_004714.jpg
p2446
sg4
F31.837076704100017
ssI7414
(dp2447
g2
V2010_004573.jpg
p2448
sg4
F23.660414026431898
ssI7415
(dp2449
g2
V2008_008203.jpg
p2450
sg4
F29.32781739731435
ssI7416
(dp2451
g2
V2010_005409.jpg
p2452
sg4
F19.558737427898237
ssI7417
(dp2453
g2
V2008_004546.jpg
p2454
sg4
F23.79200996346459
ssI7418
(dp2455
g2
V2011_001922.jpg
p2456
sg4
F28.214178336690956
ssI7419
(dp2457
g2
V2010_005483.jpg
p2458
sg4
F23.434254031531808
ssI7420
(dp2459
g2
V2010_005130.jpg
p2460
sg4
F24.797774869664735
ssI7421
(dp2461
g2
V2009_002614.jpg
p2462
sg4
F17.2214287701891
ssI7422
(dp2463
g2
V2009_004317.jpg
p2464
sg4
F15.711390536762826
ssI7423
(dp2465
g2
V2008_004425.jpg
p2466
sg4
F17.14996667859641
ssI7424
(dp2467
g2
V2010_004721.jpg
p2468
sg4
F23.23156380004489
ssI7425
(dp2469
g2
V2009_000074.jpg
p2470
sg4
F25.116555371336265
ssI7426
(dp2471
g2
V2009_003884.jpg
p2472
sg4
F28.728636261215215
ssI7427
(dp2473
g2
V2010_000527.jpg
p2474
sg4
F22.02459474233017
ssI7428
(dp2475
g2
V2011_002552.jpg
p2476
sg4
F24.77757815004126
ssI7429
(dp2477
g2
V2008_005812.jpg
p2478
sg4
F22.227097499422417
ssI7430
(dp2479
g2
V2010_004264.jpg
p2480
sg4
F26.917833562000002
ssI7431
(dp2481
g2
V2008_000581.jpg
p2482
sg4
F18.751727899228417
ssI7432
(dp2483
g2
V2010_000299.jpg
p2484
sg4
F19.706122139777055
ssI7433
(dp2485
g2
V2010_002139.jpg
p2486
sg4
F24.606507557541846
ssI7434
(dp2487
g2
V2009_000021.jpg
p2488
sg4
F29.00835901633089
ssI7435
(dp2489
g2
V2010_005868.jpg
p2490
sg4
F20.696179698196744
ssI7436
(dp2491
g2
V2011_003228.jpg
p2492
sg4
F30.977393990665686
ssI7437
(dp2493
g2
V2009_004371.jpg
p2494
sg4
F27.83818111855542
ssI7438
(dp2495
g2
V2008_007962.jpg
p2496
sg4
F33.804534992967405
ssI7439
(dp2497
g2
V2009_002235.jpg
p2498
sg4
F22.036935974661517
ssI7440
(dp2499
g2
V2009_001898.jpg
p2500
sg4
F17.95538652723902
ssI7441
(dp2501
g2
V2010_004866.jpg
p2502
sg4
F23.429046205675203
ssI7442
(dp2503
g2
V2008_002823.jpg
p2504
sg4
F20.61660524643062
ssI7443
(dp2505
g2
V2010_001174.jpg
p2506
sg4
F22.179328369097817
ssI7444
(dp2507
g2
V2008_008745.jpg
p2508
sg4
F28.610524773380497
ssI7445
(dp2509
g2
V2008_006708.jpg
p2510
sg4
F25.661534418843626
ssI7446
(dp2511
g2
V2009_003003.jpg
p2512
sg4
F27.401990921877065
ssI7447
(dp2513
g2
V2010_004683.jpg
p2514
sg4
F28.663633475174358
ssI7448
(dp2515
g2
V2009_002019.jpg
p2516
sg4
F25.51856657086879
ssI7449
(dp2517
g2
V2008_003706.jpg
p2518
sg4
F17.23065839052537
ssI7450
(dp2519
g2
V2008_008199.jpg
p2520
sg4
F28.982776870917203
ssI7451
(dp2521
g2
V2008_002403.jpg
p2522
sg4
F25.689204035657102
ssI7452
(dp2523
g2
V2010_001731.jpg
p2524
sg4
F9.95536840070739
ssI7453
(dp2525
g2
V2010_004412.jpg
p2526
sg4
F29.325526476480434
ssI7454
(dp2527
g2
V2010_005531.jpg
p2528
sg4
F17.790928533851826
ssI7455
(dp2529
g2
V2011_002236.jpg
p2530
sg4
F31.15055336098232
ssI7456
(dp2531
g2
V2009_000902.jpg
p2532
sg4
F25.82746421506707
ssI7457
(dp2533
g2
V2010_002095.jpg
p2534
sg4
F22.578277393181907
ssI7458
(dp2535
g2
V2008_003426.jpg
p2536
sg4
F17.745307559042867
ssI7459
(dp2537
g2
V2011_001406.jpg
p2538
sg4
F34.135012269047735
ssI7460
(dp2539
g2
V2011_002921.jpg
p2540
sg4
F27.302591269738688
ssI7461
(dp2541
g2
V2010_002129.jpg
p2542
sg4
F21.9779228677338
ssI7462
(dp2543
g2
V2011_001320.jpg
p2544
sg4
F17.619907721675858
ssI7463
(dp2545
g2
V2010_005921.jpg
p2546
sg4
F28.81022225554137
ssI7464
(dp2547
g2
V2011_002241.jpg
p2548
sg4
F18.11780279510061
ssI7465
(dp2549
g2
V2008_001715.jpg
p2550
sg4
F26.52580801075871
ssI7466
(dp2551
g2
V2010_002644.jpg
p2552
sg4
F25.146698896844537
ssI7467
(dp2553
g2
V2010_003898.jpg
p2554
sg4
F23.213538603417206
ssI7468
(dp2555
g2
V2008_005382.jpg
p2556
sg4
F21.023329504887222
ssI7469
(dp2557
g2
V2008_007909.jpg
p2558
sg4
F23.109111313497333
ssI7470
(dp2559
g2
V2010_000739.jpg
p2560
sg4
F21.457693903995185
ssI7471
(dp2561
g2
V2010_001718.jpg
p2562
sg4
F12.016747651537225
ssI7472
(dp2563
g2
V2010_002316.jpg
p2564
sg4
F25.78117755336556
ssI7473
(dp2565
g2
V2010_001002.jpg
p2566
sg4
F22.469757754324515
ssI7474
(dp2567
g2
V2011_002766.jpg
p2568
sg4
F19.88562665685453
ssI7475
(dp2569
g2
V2009_003832.jpg
p2570
sg4
F24.816063841649765
ssI7476
(dp2571
g2
V2009_001354.jpg
p2572
sg4
F28.505997882316976
ssI7477
(dp2573
g2
V2009_004142.jpg
p2574
sg4
F27.706903480335978
ssI7478
(dp2575
g2
V2009_002754.jpg
p2576
sg4
F16.990166080066217
ssI7479
(dp2577
g2
V2008_003189.jpg
p2578
sg4
F23.020845164185783
ssI7480
(dp2579
g2
V2011_000010.jpg
p2580
sg4
F31.78291222735687
ssI7481
(dp2581
g2
V2008_002710.jpg
p2582
sg4
F20.808468955128298
ssI7482
(dp2583
g2
V2009_003383.jpg
p2584
sg4
F25.894409488385453
ssI7483
(dp2585
g2
V2009_004670.jpg
p2586
sg4
F19.11769045804435
ssI7484
(dp2587
g2
V2010_002935.jpg
p2588
sg4
F19.112015038750915
ssI7485
(dp2589
g2
V2010_001698.jpg
p2590
sg4
F21.746020911141414
ssI7486
(dp2591
g2
V2010_000573.jpg
p2592
sg4
F26.917266323594117
ssI7487
(dp2593
g2
V2010_005968.jpg
p2594
sg4
F22.19564398568234
ssI7488
(dp2595
g2
V2010_001939.jpg
p2596
sg4
F29.84292250271939
ssI7489
(dp2597
g2
V2010_000644.jpg
p2598
sg4
F21.264414848447903
ssI7490
(dp2599
g2
V2009_002844.jpg
p2600
sg4
F26.91745435149928
ssI7491
(dp2601
g2
V2010_001537.jpg
p2602
sg4
F20.744204211452356
ssI7492
(dp2603
g2
V2010_005149.jpg
p2604
sg4
F25.55696867544214
ssI7493
(dp2605
g2
V2010_003701.jpg
p2606
sg4
F19.960528811050153
ssI7494
(dp2607
g2
V2010_005270.jpg
p2608
sg4
F31.37245999871385
ssI7495
(dp2609
g2
V2010_002880.jpg
p2610
sg4
F30.45505953055017
ssI7496
(dp2611
g2
V2008_008287.jpg
p2612
sg4
F27.267962404267422
ssI7497
(dp2613
g2
V2008_008091.jpg
p2614
sg4
F26.9051867813633
ssI7498
(dp2615
g2
V2011_001641.jpg
p2616
sg4
F26.97532215074614
ssI7499
(dp2617
g2
V2009_004979.jpg
p2618
sg4
F26.660960852752872
ssI7500
(dp2619
g2
V2010_004461.jpg
p2620
sg4
F20.712155258408515
ssI7501
(dp2621
g2
V2008_008231.jpg
p2622
sg4
F19.993799356727653
ssI7502
(dp2623
g2
V2009_000389.jpg
p2624
sg4
F19.301496040281087
ssI7503
(dp2625
g2
V2010_000646.jpg
p2626
sg4
F27.341222597353106
ssI7504
(dp2627
g2
V2009_001312.jpg
p2628
sg4
F19.885750448101746
ssI7505
(dp2629
g2
V2010_001594.jpg
p2630
sg4
F19.048974616120486
ssI7506
(dp2631
g2
V2009_002665.jpg
p2632
sg4
F31.902853178617487
ssI7507
(dp2633
g2
V2009_004858.jpg
p2634
sg4
F18.463268490455235
ssI7508
(dp2635
g2
V2009_000892.jpg
p2636
sg4
F14.984675549033833
ssI7509
(dp2637
g2
V2010_004387.jpg
p2638
sg4
F24.849660918856113
ssI7510
(dp2639
g2
V2010_001918.jpg
p2640
sg4
F27.92084932003778
ssI7511
(dp2641
g2
V2011_001601.jpg
p2642
sg4
F25.789079134383442
ssI7512
(dp2643
g2
V2008_007940.jpg
p2644
sg4
F22.696432447453567
ssI7513
(dp2645
g2
V2010_000263.jpg
p2646
sg4
F23.19257942528991
ssI7514
(dp2647
g2
V2010_001586.jpg
p2648
sg4
F31.651156442799437
ssI7515
(dp2649
g2
V2010_002538.jpg
p2650
sg4
F23.76344619446043
ssI7516
(dp2651
g2
V2008_001274.jpg
p2652
sg4
F20.77894784175357
ssI7517
(dp2653
g2
V2009_001500.jpg
p2654
sg4
F23.183690034503893
ssI7518
(dp2655
g2
V2009_004417.jpg
p2656
sg4
F29.423025590326958
ssI7519
(dp2657
g2
V2008_006298.jpg
p2658
sg4
F32.385477618367695
ssI7520
(dp2659
g2
V2010_002294.jpg
p2660
sg4
F23.742937918261408
ssI7521
(dp2661
g2
V2010_003878.jpg
p2662
sg4
F24.90658237186488
ssI7522
(dp2663
g2
V2008_005159.jpg
p2664
sg4
F28.037880968102744
ssI7523
(dp2665
g2
V2008_007511.jpg
p2666
sg4
F16.41609667701403
ssI7524
(dp2667
g2
V2010_003332.jpg
p2668
sg4
F27.979562812070803
ssI7525
(dp2669
g2
V2008_002002.jpg
p2670
sg4
F28.348677376253143
ssI7526
(dp2671
g2
V2010_002891.jpg
p2672
sg4
F21.40845856967324
ssI7527
(dp2673
g2
V2010_005152.jpg
p2674
sg4
F23.012078719461133
ssI7528
(dp2675
g2
V2008_008080.jpg
p2676
sg4
F33.24041883830836
ssI7529
(dp2677
g2
V2010_004888.jpg
p2678
sg4
F19.4437274446359
ssI7530
(dp2679
g2
V2010_005948.jpg
p2680
sg4
F23.332921488835193
ssI7531
(dp2681
g2
V2010_003806.jpg
p2682
sg4
F23.24525231266929
ssI7532
(dp2683
g2
V2011_000661.jpg
p2684
sg4
F19.7971714164348
ssI7533
(dp2685
g2
V2009_000879.jpg
p2686
sg4
F27.13688252748909
ssI7534
(dp2687
g2
V2009_003933.jpg
p2688
sg4
F21.332085607645094
ssI7535
(dp2689
g2
V2010_001320.jpg
p2690
sg4
F24.492730308630968
ssI7536
(dp2691
g2
V2011_001031.jpg
p2692
sg4
F29.493175817784195
ssI7537
(dp2693
g2
V2008_002495.jpg
p2694
sg4
F27.240857207546266
ssI7538
(dp2695
g2
V2010_001788.jpg
p2696
sg4
F28.55854782060923
ssI7539
(dp2697
g2
V2010_003939.jpg
p2698
sg4
F27.809948232190226
ssI7540
(dp2699
g2
V2010_001590.jpg
p2700
sg4
F18.225119768962294
ssI7541
(dp2701
g2
V2009_000426.jpg
p2702
sg4
F22.940537717537566
ssI7542
(dp2703
g2
V2011_000577.jpg
p2704
sg4
F26.080779415878432
ssI7543
(dp2705
g2
V2009_000039.jpg
p2706
sg4
F18.780855481916028
ssI7544
(dp2707
g2
V2009_001979.jpg
p2708
sg4
F23.25765391408937
ssI7545
(dp2709
g2
V2009_002833.jpg
p2710
sg4
F29.281214865233764
ssI7546
(dp2711
g2
V2008_001775.jpg
p2712
sg4
F26.84348347320526
ssI7547
(dp2713
g2
V2010_003863.jpg
p2714
sg4
F20.821071647087972
ssI7548
(dp2715
g2
V2010_003316.jpg
p2716
sg4
F34.248140486099174
ssI7549
(dp2717
g2
V2009_002947.jpg
p2718
sg4
F24.196161487538625
ssI7550
(dp2719
g2
V2010_005480.jpg
p2720
sg4
F19.760337528446676
ssI7551
(dp2721
g2
V2008_000099.jpg
p2722
sg4
F22.572067744219527
ssI7552
(dp2723
g2
V2008_005526.jpg
p2724
sg4
F31.26103763923315
ssI7553
(dp2725
g2
V2010_002851.jpg
p2726
sg4
F30.55200037087778
ssI7554
(dp2727
g2
V2011_003030.jpg
p2728
sg4
F16.947935803004963
ssI7555
(dp2729
g2
V2010_002621.jpg
p2730
sg4
F17.229953282063036
ssI7556
(dp2731
g2
V2008_004126.jpg
p2732
sg4
F26.1031977596432
ssI7557
(dp2733
g2
V2010_005664.jpg
p2734
sg4
F26.40319976277623
ssI7558
(dp2735
g2
V2011_002553.jpg
p2736
sg4
F34.527700629217435
ssI7559
(dp2737
g2
V2011_001198.jpg
p2738
sg4
F16.698498595361833
ssI7560
(dp2739
g2
V2009_003738.jpg
p2740
sg4
F25.236981591470673
ssI7561
(dp2741
g2
V2010_005033.jpg
p2742
sg4
F23.445373348517887
ssI7562
(dp2743
g2
V2009_001741.jpg
p2744
sg4
F27.40853796519851
ssI7563
(dp2745
g2
V2008_002058.jpg
p2746
sg4
F29.845469446140697
ssI7564
(dp2747
g2
V2008_008190.jpg
p2748
sg4
F21.468663384329627
ssI7565
(dp2749
g2
V2010_002289.jpg
p2750
sg4
F22.160093646054996
ssI7566
(dp2751
g2
V2008_002948.jpg
p2752
sg4
F25.34706268740154
ssI7567
(dp2753
g2
V2008_001491.jpg
p2754
sg4
F25.162757672417037
ssI7568
(dp2755
g2
V2010_002379.jpg
p2756
sg4
F19.89572011801729
ssI7569
(dp2757
g2
V2009_002971.jpg
p2758
sg4
F26.37522909646832
ssI7570
(dp2759
g2
V2009_003271.jpg
p2760
sg4
F24.493373445102385
ssI7571
(dp2761
g2
V2008_003868.jpg
p2762
sg4
F21.008579726600527
ssI7572
(dp2763
g2
V2009_005168.jpg
p2764
sg4
F27.664119594872126
ssI7573
(dp2765
g2
V2008_004615.jpg
p2766
sg4
F29.797419521088536
ssI7574
(dp2767
g2
V2008_001456.jpg
p2768
sg4
F18.544622374899642
ssI7575
(dp2769
g2
V2008_005347.jpg
p2770
sg4
F30.424873887317737
ssI7576
(dp2771
g2
V2011_002863.jpg
p2772
sg4
F24.229677072123774
ssI7577
(dp2773
g2
V2009_003076.jpg
p2774
sg4
F31.425998261567603
ssI7578
(dp2775
g2
V2011_002927.jpg
p2776
sg4
F29.764980829869298
ssI7579
(dp2777
g2
V2008_008229.jpg
p2778
sg4
F33.702921971939176
ssI7580
(dp2779
g2
V2011_002833.jpg
p2780
sg4
F22.531318527915076
ssI7581
(dp2781
g2
V2011_002484.jpg
p2782
sg4
F32.19687045089226
ssI7582
(dp2783
g2
V2010_002597.jpg
p2784
sg4
F26.06506258879315
ssI7583
(dp2785
g2
V2009_002001.jpg
p2786
sg4
F34.54414482156191
ssI7584
(dp2787
g2
V2009_000742.jpg
p2788
sg4
F16.3946800281613
ssI7585
(dp2789
g2
V2011_003148.jpg
p2790
sg4
F22.645095762695775
ssI7586
(dp2791
g2
V2011_001501.jpg
p2792
sg4
F28.263169426533537
ssI7587
(dp2793
g2
V2009_003522.jpg
p2794
sg4
F27.79365411873028
ssI7588
(dp2795
g2
V2010_003391.jpg
p2796
sg4
F18.602266507742076
ssI7589
(dp2797
g2
V2008_005336.jpg
p2798
sg4
F28.425417419116645
ssI7590
(dp2799
g2
V2010_003938.jpg
p2800
sg4
F19.47876251447374
ssI7591
(dp2801
g2
V2009_002824.jpg
p2802
sg4
F28.900909425420124
ssI7592
(dp2803
g2
V2009_001322.jpg
p2804
sg4
F29.633357249496836
ssI7593
(dp2805
g2
V2011_000469.jpg
p2806
sg4
F17.872074331338585
ssI7594
(dp2807
g2
V2010_001533.jpg
p2808
sg4
F33.46727323840713
ssI7595
(dp2809
g2
V2008_004497.jpg
p2810
sg4
F25.34248979515406
ssI7596
(dp2811
g2
V2009_004483.jpg
p2812
sg4
F18.019392745400676
ssI7597
(dp2813
g2
V2010_006076.jpg
p2814
sg4
F20.390973131670112
ssI7598
(dp2815
g2
V2010_001927.jpg
p2816
sg4
F17.411568776440543
ssI7599
(dp2817
g2
V2010_000547.jpg
p2818
sg4
F20.234567428685267
ssI7600
(dp2819
g2
V2008_001057.jpg
p2820
sg4
F28.697634032269768
ssI7601
(dp2821
g2
V2008_006610.jpg
p2822
sg4
F24.845189962168
ssI7602
(dp2823
g2
V2009_003865.jpg
p2824
sg4
F25.814500347315544
ssI7603
(dp2825
g2
V2008_003866.jpg
p2826
sg4
F27.209170776715343
ssI7604
(dp2827
g2
V2009_000849.jpg
p2828
sg4
F19.96559329360312
ssI7605
(dp2829
g2
V2010_002565.jpg
p2830
sg4
F26.874562636565113
ssI7606
(dp2831
g2
V2009_002299.jpg
p2832
sg4
F21.702497319743404
ssI7607
(dp2833
g2
V2009_000906.jpg
p2834
sg4
F29.05478148184519
ssI7608
(dp2835
g2
V2011_001568.jpg
p2836
sg4
F17.32743512662066
ssI7609
(dp2837
g2
V2010_004056.jpg
p2838
sg4
F30.96961522549063
ssI7610
(dp2839
g2
V2010_001211.jpg
p2840
sg4
F30.705926263540775
ssI7611
(dp2841
g2
V2008_007737.jpg
p2842
sg4
F27.414707289903387
ssI7612
(dp2843
g2
V2009_000995.jpg
p2844
sg4
F31.463677231105994
ssI7613
(dp2845
g2
V2011_001014.jpg
p2846
sg4
F22.57484688735859
ssI7614
(dp2847
g2
V2010_000163.jpg
p2848
sg4
F18.10666211284701
ssI7615
(dp2849
g2
V2011_001920.jpg
p2850
sg4
F30.33013203399911
ssI7616
(dp2851
g2
V2008_005088.jpg
p2852
sg4
F25.579784608501097
ssI7617
(dp2853
g2
V2008_005683.jpg
p2854
sg4
F26.389429303812147
ssI7618
(dp2855
g2
V2008_004092.jpg
p2856
sg4
F23.623824772513114
ssI7619
(dp2857
g2
V2010_003612.jpg
p2858
sg4
F31.149445168564256
ssI7620
(dp2859
g2
V2009_004037.jpg
p2860
sg4
F23.015596863935823
ssI7621
(dp2861
g2
V2008_005739.jpg
p2862
sg4
F27.553799958310854
ssI7622
(dp2863
g2
V2008_003805.jpg
p2864
sg4
F29.875362071673013
ssI7623
(dp2865
g2
V2008_004986.jpg
p2866
sg4
F21.36687109615195
ssI7624
(dp2867
g2
V2010_003053.jpg
p2868
sg4
F26.826786193643855
ssI7625
(dp2869
g2
V2010_002361.jpg
p2870
sg4
F23.2480022405687
ssI7626
(dp2871
g2
V2010_003157.jpg
p2872
sg4
F24.00997015406729
ssI7627
(dp2873
g2
V2008_007048.jpg
p2874
sg4
F20.017308322976007
ssI7628
(dp2875
g2
V2008_008341.jpg
p2876
sg4
F30.93117423627242
ssI7629
(dp2877
g2
V2008_004858.jpg
p2878
sg4
F30.476929097619223
ssI7630
(dp2879
g2
V2008_005194.jpg
p2880
sg4
F19.65239616193384
ssI7631
(dp2881
g2
V2008_003773.jpg
p2882
sg4
F23.94123490874522
ssI7632
(dp2883
g2
V2011_002872.jpg
p2884
sg4
F25.910863228381807
ssI7633
(dp2885
g2
V2008_002032.jpg
p2886
sg4
F32.01182728805107
ssI7634
(dp2887
g2
V2009_003129.jpg
p2888
sg4
F24.370536022353214
ssI7635
(dp2889
g2
V2009_003551.jpg
p2890
sg4
F27.058004326409236
ssI7636
(dp2891
g2
V2010_005035.jpg
p2892
sg4
F25.017898882884303
ssI7637
(dp2893
g2
V2011_001679.jpg
p2894
sg4
F25.26418212382741
ssI7638
(dp2895
g2
V2010_003259.jpg
p2896
sg4
F18.73147009100712
ssI7639
(dp2897
g2
V2009_003353.jpg
p2898
sg4
F30.139973649263606
ssI7640
(dp2899
g2
V2008_006748.jpg
p2900
sg4
F26.11917802852826
ssI7641
(dp2901
g2
V2008_007527.jpg
p2902
sg4
F32.38481414164754
ssI7642
(dp2903
g2
V2011_000427.jpg
p2904
sg4
F40.50710336908411
ssI7643
(dp2905
g2
V2008_002904.jpg
p2906
sg4
F17.190044648210367
ssI7644
(dp2907
g2
V2010_004505.jpg
p2908
sg4
F18.26381931344403
ssI7645
(dp2909
g2
V2009_000254.jpg
p2910
sg4
F24.541178372281117
ssI7646
(dp2911
g2
V2011_001665.jpg
p2912
sg4
F27.58843461447647
ssI7647
(dp2913
g2
V2008_007534.jpg
p2914
sg4
F31.136973277953636
ssI7648
(dp2915
g2
V2011_003065.jpg
p2916
sg4
F28.525107671526058
ssI7649
(dp2917
g2
V2011_002917.jpg
p2918
sg4
F25.00396954400405
ssI7650
(dp2919
g2
V2011_000359.jpg
p2920
sg4
F22.527755283150075
ssI7651
(dp2921
g2
V2010_004253.jpg
p2922
sg4
F22.1700105522198
ssI7652
(dp2923
g2
V2010_005597.jpg
p2924
sg4
F23.12378704523184
ssI7653
(dp2925
g2
V2010_000545.jpg
p2926
sg4
F23.77609736816018
ssI7654
(dp2927
g2
V2009_002705.jpg
p2928
sg4
F23.80923333788637
ssI7655
(dp2929
g2
V2010_002990.jpg
p2930
sg4
F19.849578345787688
ssI7656
(dp2931
g2
V2010_000721.jpg
p2932
sg4
F21.80632288579916
ssI7657
(dp2933
g2
V2010_002901.jpg
p2934
sg4
F22.785540049531456
ssI7658
(dp2935
g2
V2009_005246.jpg
p2936
sg4
F23.790551758725993
ssI7659
(dp2937
g2
V2010_004362.jpg
p2938
sg4
F21.441897971479207
ssI7660
(dp2939
g2
V2008_007953.jpg
p2940
sg4
F31.439975773976435
ssI7661
(dp2941
g2
V2009_003855.jpg
p2942
sg4
F27.355429101063535
ssI7662
(dp2943
g2
V2010_003162.jpg
p2944
sg4
F19.52181332749303
ssI7663
(dp2945
g2
V2010_001763.jpg
p2946
sg4
F16.605173548554006
ssI7664
(dp2947
g2
V2010_001274.jpg
p2948
sg4
F29.34912352359918
ssI7665
(dp2949
g2
V2010_004922.jpg
p2950
sg4
F20.76784239130312
ssI7666
(dp2951
g2
V2008_003081.jpg
p2952
sg4
F29.00645745663394
ssI7667
(dp2953
g2
V2010_005538.jpg
p2954
sg4
F29.074794304893153
ssI7668
(dp2955
g2
V2010_000836.jpg
p2956
sg4
F14.711202801099512
ssI7669
(dp2957
g2
V2010_004054.jpg
p2958
sg4
F28.05612706339363
ssI7670
(dp2959
g2
V2008_003022.jpg
p2960
sg4
F25.50622791977435
ssI7671
(dp2961
g2
V2009_000150.jpg
p2962
sg4
F21.140345949983708
ssI7672
(dp2963
g2
V2009_000848.jpg
p2964
sg4
F30.126071088295927
ssI7673
(dp2965
g2
V2009_002521.jpg
p2966
sg4
F20.832521553254704
ssI7674
(dp2967
g2
V2011_001614.jpg
p2968
sg4
F27.320374002231677
ssI7675
(dp2969
g2
V2009_003320.jpg
p2970
sg4
F24.257259096872954
ssI7676
(dp2971
g2
V2010_002529.jpg
p2972
sg4
F17.830106525472434
ssI7677
(dp2973
g2
V2009_004334.jpg
p2974
sg4
F18.835582650676333
ssI7678
(dp2975
g2
V2008_004408.jpg
p2976
sg4
F30.301342242553346
ssI7679
(dp2977
g2
V2010_005557.jpg
p2978
sg4
F17.110524421817242
ssI7680
(dp2979
g2
V2008_008726.jpg
p2980
sg4
F37.22248212323155
ssI7681
(dp2981
g2
V2011_001656.jpg
p2982
sg4
F19.156547420300026
ssI7682
(dp2983
g2
V2008_006731.jpg
p2984
sg4
F23.645314170118347
ssI7683
(dp2985
g2
V2009_001837.jpg
p2986
sg4
F19.27378311429065
ssI7684
(dp2987
g2
V2011_003223.jpg
p2988
sg4
F13.95435279703898
ssI7685
(dp2989
g2
V2008_007806.jpg
p2990
sg4
F21.81875725697051
ssI7686
(dp2991
g2
V2008_003985.jpg
p2992
sg4
F24.59590871758374
ssI7687
(dp2993
g2
V2010_003788.jpg
p2994
sg4
F27.624923592128322
ssI7688
(dp2995
g2
V2009_000182.jpg
p2996
sg4
F25.463671363063035
ssI7689
(dp2997
g2
V2008_002983.jpg
p2998
sg4
F20.5610225277411
ssI7690
(dp2999
g2
V2008_007706.jpg
p3000
sg4
F22.10795543208361
ssI7691
(dp3001
g2
V2011_000499.jpg
p3002
sg4
F30.45795780041566
ssI7692
(dp3003
g2
V2009_000811.jpg
p3004
sg4
F24.912533369709273
ssI7693
(dp3005
g2
V2010_000063.jpg
p3006
sg4
F25.67006865665234
ssI7694
(dp3007
g2
V2009_002352.jpg
p3008
sg4
F20.063817068213886
ssI7695
(dp3009
g2
V2010_002713.jpg
p3010
sg4
F26.90299166747093
ssI7696
(dp3011
g2
V2008_004071.jpg
p3012
sg4
F30.51200084596676
ssI7697
(dp3013
g2
V2008_004756.jpg
p3014
sg4
F29.004664080836946
ssI7698
(dp3015
g2
V2009_001673.jpg
p3016
sg4
F29.43169583839165
ssI7699
(dp3017
g2
V2010_001759.jpg
p3018
sg4
F25.046421867762085
ssI7700
(dp3019
g2
V2010_003010.jpg
p3020
sg4
F21.390107974683044
ssI7701
(dp3021
g2
V2008_000339.jpg
p3022
sg4
F14.382431817784736
ssI7702
(dp3023
g2
V2009_001406.jpg
p3024
sg4
F19.901616892338367
ssI7703
(dp3025
g2
V2008_007804.jpg
p3026
sg4
F29.722316977988218
ssI7704
(dp3027
g2
V2009_001009.jpg
p3028
sg4
F24.201926998059374
ssI7705
(dp3029
g2
V2009_002137.jpg
p3030
sg4
F18.60351892810691
ssI7706
(dp3031
g2
V2010_000377.jpg
p3032
sg4
F25.32698522985158
ssI7707
(dp3033
g2
V2008_006288.jpg
p3034
sg4
F27.645368562949972
ssI7708
(dp3035
g2
V2009_001562.jpg
p3036
sg4
F21.725636351250184
ssI7709
(dp3037
g2
V2008_005472.jpg
p3038
sg4
F28.839741748612518
ssI7710
(dp3039
g2
V2008_004617.jpg
p3040
sg4
F26.472224777107794
ssI7711
(dp3041
g2
V2008_006837.jpg
p3042
sg4
F18.206263900870965
ssI7712
(dp3043
g2
V2009_001627.jpg
p3044
sg4
F21.894728646574254
ssI7713
(dp3045
g2
V2008_008097.jpg
p3046
sg4
F30.263449465675926
ssI7714
(dp3047
g2
V2008_002709.jpg
p3048
sg4
F29.659407124334734
ssI7715
(dp3049
g2
V2010_002993.jpg
p3050
sg4
F23.525765251948627
ssI7716
(dp3051
g2
V2009_004761.jpg
p3052
sg4
F19.589940648481832
ssI7717
(dp3053
g2
V2008_007421.jpg
p3054
sg4
F25.75775976152932
ssI7718
(dp3055
g2
V2010_001770.jpg
p3056
sg4
F26.01856542879235
ssI7719
(dp3057
g2
V2008_000289.jpg
p3058
sg4
F30.80912668396049
ssI7720
(dp3059
g2
V2010_002789.jpg
p3060
sg4
F33.20892925276654
ssI7721
(dp3061
g2
V2009_004768.jpg
p3062
sg4
F21.915245566861458
ssI7722
(dp3063
g2
V2008_003245.jpg
p3064
sg4
F26.00497984857597
ssI7723
(dp3065
g2
V2008_005490.jpg
p3066
sg4
F13.414126280812802
ssI7724
(dp3067
g2
V2010_003056.jpg
p3068
sg4
F25.736481051639686
ssI7725
(dp3069
g2
V2008_005726.jpg
p3070
sg4
F26.901662315346226
ssI7726
(dp3071
g2
V2008_006400.jpg
p3072
sg4
F18.48603343466345
ssI7727
(dp3073
g2
V2008_002358.jpg
p3074
sg4
F27.043942268893915
ssI7728
(dp3075
g2
V2011_002482.jpg
p3076
sg4
F30.936879278562227
ssI7729
(dp3077
g2
V2008_001903.jpg
p3078
sg4
F24.19908406930946
ssI7730
(dp3079
g2
V2011_000070.jpg
p3080
sg4
F16.90085669678468
ssI7731
(dp3081
g2
V2010_003474.jpg
p3082
sg4
F21.749865512405975
ssI7732
(dp3083
g2
V2008_000940.jpg
p3084
sg4
F20.18915033705368
ssI7733
(dp3085
g2
V2008_005825.jpg
p3086
sg4
F27.815180656430094
ssI7734
(dp3087
g2
V2008_007054.jpg
p3088
sg4
F22.285551780242
ssI7735
(dp3089
g2
V2011_000675.jpg
p3090
sg4
F30.730680629517376
ssI7736
(dp3091
g2
V2008_002773.jpg
p3092
sg4
F29.287349444649564
ssI7737
(dp3093
g2
V2010_004472.jpg
p3094
sg4
F21.57961047235008
ssI7738
(dp3095
g2
V2008_006819.jpg
p3096
sg4
F22.189607153962275
ssI7739
(dp3097
g2
V2009_003613.jpg
p3098
sg4
F21.807370859050835
ssI7740
(dp3099
g2
V2011_002492.jpg
p3100
sg4
F31.044551374278218
ssI7741
(dp3101
g2
V2009_004177.jpg
p3102
sg4
F27.72069006465477
ssI7742
(dp3103
g2
V2009_003126.jpg
p3104
sg4
F25.070214995730698
ssI7743
(dp3105
g2
V2008_005633.jpg
p3106
sg4
F18.66112385014233
ssI7744
(dp3107
g2
V2008_007388.jpg
p3108
sg4
F28.76635784450944
ssI7745
(dp3109
g2
V2010_002455.jpg
p3110
sg4
F22.105595488405392
ssI7746
(dp3111
g2
V2011_000514.jpg
p3112
sg4
F18.03153744936175
ssI7747
(dp3113
g2
V2008_002966.jpg
p3114
sg4
F31.41385754727495
ssI7748
(dp3115
g2
V2008_006714.jpg
p3116
sg4
F25.340173064090486
ssI7749
(dp3117
g2
V2011_001557.jpg
p3118
sg4
F30.969333829858027
ssI7750
(dp3119
g2
V2008_005822.jpg
p3120
sg4
F26.786988687113595
ssI7751
(dp3121
g2
V2008_002750.jpg
p3122
sg4
F29.87446139757651
ssI7752
(dp3123
g2
V2009_004179.jpg
p3124
sg4
F31.410853470588716
ssI7753
(dp3125
g2
V2009_000378.jpg
p3126
sg4
F26.422999162869854
ssI7754
(dp3127
g2
V2011_001950.jpg
p3128
sg4
F24.505930879103246
ssI7755
(dp3129
g2
V2011_000492.jpg
p3130
sg4
F28.79356363056139
ssI7756
(dp3131
g2
V2010_004903.jpg
p3132
sg4
F24.123513158423272
ssI7757
(dp3133
g2
V2010_005788.jpg
p3134
sg4
F24.879913021750085
ssI7758
(dp3135
g2
V2008_000817.jpg
p3136
sg4
F24.86931451989602
ssI7759
(dp3137
g2
V2008_003095.jpg
p3138
sg4
F22.3779313786599
ssI7760
(dp3139
g2
V2008_001304.jpg
p3140
sg4
F30.855437226139856
ssI7761
(dp3141
g2
V2009_002267.jpg
p3142
sg4
F21.352983506559774
ssI7762
(dp3143
g2
V2008_004441.jpg
p3144
sg4
F30.190593034538832
ssI7763
(dp3145
g2
V2009_000472.jpg
p3146
sg4
F20.69519183280128
ssI7764
(dp3147
g2
V2010_000488.jpg
p3148
sg4
F18.82809527334598
ssI7765
(dp3149
g2
V2010_003532.jpg
p3150
sg4
F25.37512279927075
ssI7766
(dp3151
g2
V2009_000770.jpg
p3152
sg4
F25.013275061692898
ssI7767
(dp3153
g2
V2010_000014.jpg
p3154
sg4
F21.297846721768796
ssI7768
(dp3155
g2
V2009_001384.jpg
p3156
sg4
F23.169020276881632
ssI7769
(dp3157
g2
V2011_001956.jpg
p3158
sg4
F25.24292824426174
ssI7770
(dp3159
g2
V2010_002742.jpg
p3160
sg4
F31.676385713707838
ssI7771
(dp3161
g2
V2010_004368.jpg
p3162
sg4
F35.63838161697447
ssI7772
(dp3163
g2
V2009_002515.jpg
p3164
sg4
F22.94271240371297
ssI7773
(dp3165
g2
V2009_000067.jpg
p3166
sg4
F29.63929631121964
ssI7774
(dp3167
g2
V2009_004328.jpg
p3168
sg4
F30.685889345160504
ssI7775
(dp3169
g2
V2010_004337.jpg
p3170
sg4
F28.61089648351079
ssI7776
(dp3171
g2
V2008_003847.jpg
p3172
sg4
F28.02059327981621
ssI7777
(dp3173
g2
V2011_002260.jpg
p3174
sg4
F30.096920358380203
ssI7778
(dp3175
g2
V2011_000487.jpg
p3176
sg4
F23.099389838127653
ssI7779
(dp3177
g2
V2008_007061.jpg
p3178
sg4
F31.443368274985332
ssI7780
(dp3179
g2
V2009_000356.jpg
p3180
sg4
F25.226158716500187
ssI7781
(dp3181
g2
V2008_004635.jpg
p3182
sg4
F16.99173855617517
ssI7782
(dp3183
g2
V2010_004448.jpg
p3184
sg4
F17.26346771187163
ssI7783
(dp3185
g2
V2009_001651.jpg
p3186
sg4
F26.663041054408662
ssI7784
(dp3187
g2
V2009_001472.jpg
p3188
sg4
F25.48963664518302
ssI7785
(dp3189
g2
V2010_000918.jpg
p3190
sg4
F19.886278479178575
ssI7786
(dp3191
g2
V2009_002867.jpg
p3192
sg4
F24.720870132366027
ssI7787
(dp3193
g2
V2009_003034.jpg
p3194
sg4
F26.4676017163452
ssI7788
(dp3195
g2
V2008_001493.jpg
p3196
sg4
F23.79759445885249
ssI7789
(dp3197
g2
V2009_001587.jpg
p3198
sg4
F20.603237292930547
ssI7790
(dp3199
g2
V2008_004243.jpg
p3200
sg4
F18.780115001635288
ssI7791
(dp3201
g2
V2010_000838.jpg
p3202
sg4
F20.405728055332244
ssI7792
(dp3203
g2
V2011_000379.jpg
p3204
sg4
F21.054250295020402
ssI7793
(dp3205
g2
V2011_002879.jpg
p3206
sg4
F29.90273720712227
ssI7794
(dp3207
g2
V2008_006178.jpg
p3208
sg4
F23.351206637270067
ssI7795
(dp3209
g2
V2010_002142.jpg
p3210
sg4
F26.151894671172958
ssI7796
(dp3211
g2
V2008_001727.jpg
p3212
sg4
F22.784995470650145
ssI7797
(dp3213
g2
V2011_001980.jpg
p3214
sg4
F24.523909692830962
ssI7798
(dp3215
g2
V2010_004704.jpg
p3216
sg4
F30.398277294418634
ssI7799
(dp3217
g2
V2009_000824.jpg
p3218
sg4
F26.554840530715637
ssI7800
(dp3219
g2
V2010_005386.jpg
p3220
sg4
F17.948413283305406
ssI7801
(dp3221
g2
V2011_003066.jpg
p3222
sg4
F33.73452911680277
ssI7802
(dp3223
g2
V2008_007091.jpg
p3224
sg4
F31.051868344918073
ssI7803
(dp3225
g2
V2009_004829.jpg
p3226
sg4
F23.523055707190785
ssI7804
(dp3227
g2
V2009_002728.jpg
p3228
sg4
F22.41154378710841
ssI7805
(dp3229
g2
V2009_005016.jpg
p3230
sg4
F24.546562507873567
ssI7806
(dp3231
g2
V2008_003577.jpg
p3232
sg4
F22.92779902486238
ssI7807
(dp3233
g2
V2010_003911.jpg
p3234
sg4
F20.084302537016953
ssI7808
(dp3235
g2
V2008_005764.jpg
p3236
sg4
F24.39858728189261
ssI7809
(dp3237
g2
V2010_004763.jpg
p3238
sg4
F33.261768176974606
ssI7810
(dp3239
g2
V2011_001964.jpg
p3240
sg4
F25.82495500506805
ssI7811
(dp3241
g2
V2010_001430.jpg
p3242
sg4
F21.309608087789655
ssI7812
(dp3243
g2
V2011_000999.jpg
p3244
sg4
F21.72858257565303
ssI7813
(dp3245
g2
V2009_003922.jpg
p3246
sg4
F25.76043360554837
ssI7814
(dp3247
g2
V2009_004283.jpg
p3248
sg4
F29.04248886812048
ssI7815
(dp3249
g2
V2011_002027.jpg
p3250
sg4
F17.022689820693152
ssI7816
(dp3251
g2
V2008_002131.jpg
p3252
sg4
F30.27880723286825
ssI7817
(dp3253
g2
V2008_005001.jpg
p3254
sg4
F34.9438371419449
ssI7818
(dp3255
g2
V2010_006066.jpg
p3256
sg4
F21.12994888878022
ssI7819
(dp3257
g2
V2008_006062.jpg
p3258
sg4
F29.99378142825196
ssI7820
(dp3259
g2
V2008_008200.jpg
p3260
sg4
F27.319537688507754
ssI7821
(dp3261
g2
V2011_000426.jpg
p3262
sg4
F24.950146655528705
ssI7822
(dp3263
g2
V2011_000034.jpg
p3264
sg4
F25.21719662174432
ssI7823
(dp3265
g2
V2008_004752.jpg
p3266
sg4
F21.494873296904633
ssI7824
(dp3267
g2
V2010_005899.jpg
p3268
sg4
F23.613449129238703
ssI7825
(dp3269
g2
V2008_001451.jpg
p3270
sg4
F31.48764037316425
ssI7826
(dp3271
g2
V2010_002632.jpg
p3272
sg4
F26.564771457896338
ssI7827
(dp3273
g2
V2008_005362.jpg
p3274
sg4
F17.24829876837708
ssI7828
(dp3275
g2
V2009_002258.jpg
p3276
sg4
F22.417714639855635
ssI7829
(dp3277
g2
V2011_001263.jpg
p3278
sg4
F24.806877348871783
ssI7830
(dp3279
g2
V2011_002055.jpg
p3280
sg4
F17.781460235091537
ssI7831
(dp3281
g2
V2008_003211.jpg
p3282
sg4
F16.027905623604774
ssI7832
(dp3283
g2
V2008_006885.jpg
p3284
sg4
F21.9334979676767
ssI7833
(dp3285
g2
V2011_000824.jpg
p3286
sg4
F31.779858819461168
ssI7834
(dp3287
g2
V2010_004339.jpg
p3288
sg4
F18.02036796686756
ssI7835
(dp3289
g2
V2010_000822.jpg
p3290
sg4
F19.6267667126551
ssI7836
(dp3291
g2
V2008_006090.jpg
p3292
sg4
F16.04730313296154
ssI7837
(dp3293
g2
V2010_000865.jpg
p3294
sg4
F31.026856988880144
ssI7838
(dp3295
g2
V2010_002551.jpg
p3296
sg4
F23.451753315312448
ssI7839
(dp3297
g2
V2008_007741.jpg
p3298
sg4
F23.046135088989235
ssI7840
(dp3299
g2
V2008_001979.jpg
p3300
sg4
F25.07674226304256
ssI7841
(dp3301
g2
V2010_004417.jpg
p3302
sg4
F25.647465776198157
ssI7842
(dp3303
g2
V2008_001249.jpg
p3304
sg4
F22.075082952334057
ssI7843
(dp3305
g2
V2010_004782.jpg
p3306
sg4
F25.729194223354604
ssI7844
(dp3307
g2
V2011_002179.jpg
p3308
sg4
F21.997207642287414
ssI7845
(dp3309
g2
V2008_001551.jpg
p3310
sg4
F29.635400543494377
ssI7846
(dp3311
g2
V2008_004979.jpg
p3312
sg4
F27.002345271438656
ssI7847
(dp3313
g2
V2008_004504.jpg
p3314
sg4
F20.389814839494655
ssI7848
(dp3315
g2
V2010_001009.jpg
p3316
sg4
F17.740074155340537
ssI7849
(dp3317
g2
V2008_002955.jpg
p3318
sg4
F24.568551420702324
ssI7850
(dp3319
g2
V2010_002327.jpg
p3320
sg4
F27.81164990921462
ssI7851
(dp3321
g2
V2010_001637.jpg
p3322
sg4
F22.379606458452695
ssI7852
(dp3323
g2
V2009_002777.jpg
p3324
sg4
F28.07887702133243
ssI7853
(dp3325
g2
V2010_005719.jpg
p3326
sg4
F21.237645050753088
ssI7854
(dp3327
g2
V2008_006289.jpg
p3328
sg4
F23.43711092958323
ssI7855
(dp3329
g2
V2009_001542.jpg
p3330
sg4
F25.999159105306667
ssI7856
(dp3331
g2
V2010_004276.jpg
p3332
sg4
F25.784075896189645
ssI7857
(dp3333
g2
V2009_002697.jpg
p3334
sg4
F19.789006070959886
ssI7858
(dp3335
g2
V2011_002381.jpg
p3336
sg4
F25.466820838895913
ssI7859
(dp3337
g2
V2008_001676.jpg
p3338
sg4
F21.148471945082218
ssI7860
(dp3339
g2
V2008_000535.jpg
p3340
sg4
F28.7359492516765
ssI7861
(dp3341
g2
V2008_004171.jpg
p3342
sg4
F20.584162567185082
ssI7862
(dp3343
g2
V2010_000769.jpg
p3344
sg4
F25.025925791995107
ssI7863
(dp3345
g2
V2010_000090.jpg
p3346
sg4
F13.836710152206384
ssI7864
(dp3347
g2
V2008_001622.jpg
p3348
sg4
F22.322937293957775
ssI7865
(dp3349
g2
V2009_001253.jpg
p3350
sg4
F27.453390978636474
ssI7866
(dp3351
g2
V2008_007250.jpg
p3352
sg4
F31.892125506726913
ssI7867
(dp3353
g2
V2011_000682.jpg
p3354
sg4
F21.46820635006946
ssI7868
(dp3355
g2
V2008_004619.jpg
p3356
sg4
F32.05860297945018
ssI7869
(dp3357
g2
V2009_005040.jpg
p3358
sg4
F20.206372213671543
ssI7870
(dp3359
g2
V2009_003376.jpg
p3360
sg4
F21.323855430934756
ssI7871
(dp3361
g2
V2009_002425.jpg
p3362
sg4
F31.403872431610463
ssI7872
(dp3363
g2
V2010_003891.jpg
p3364
sg4
F19.656634946420283
ssI7873
(dp3365
g2
V2008_002208.jpg
p3366
sg4
F21.664179159074305
ssI7874
(dp3367
g2
V2008_003088.jpg
p3368
sg4
F22.36137536442179
ssI7875
(dp3369
g2
V2009_004273.jpg
p3370
sg4
F27.7902896758186
ssI7876
(dp3371
g2
V2010_002841.jpg
p3372
sg4
F22.19260361986426
ssI7877
(dp3373
g2
V2011_002149.jpg
p3374
sg4
F26.121584182702897
ssI7878
(dp3375
g2
V2011_002887.jpg
p3376
sg4
F19.485157827929314
ssI7879
(dp3377
g2
V2010_005456.jpg
p3378
sg4
F21.889075530750226
ssI7880
(dp3379
g2
V2008_002829.jpg
p3380
sg4
F24.910935284781058
ssI7881
(dp3381
g2
V2010_005727.jpg
p3382
sg4
F27.663336420911495
ssI7882
(dp3383
g2
V2010_002976.jpg
p3384
sg4
F20.734519191663914
ssI7883
(dp3385
g2
V2009_002941.jpg
p3386
sg4
F17.27606477918265
ssI7884
(dp3387
g2
V2008_008411.jpg
p3388
sg4
F18.82970140505105
ssI7885
(dp3389
g2
V2008_000971.jpg
p3390
sg4
F33.1879226588977
ssI7886
(dp3391
g2
V2008_007641.jpg
p3392
sg4
F21.12102573777324
ssI7887
(dp3393
g2
V2011_001782.jpg
p3394
sg4
F24.556889764249544
ssI7888
(dp3395
g2
V2008_007197.jpg
p3396
sg4
F25.32018482241555
ssI7889
(dp3397
g2
V2009_005152.jpg
p3398
sg4
F22.894181415570145
ssI7890
(dp3399
g2
V2008_008770.jpg
p3400
sg4
F31.26946566179252
ssI7891
(dp3401
g2
V2009_003415.jpg
p3402
sg4
F23.89106447310702
ssI7892
(dp3403
g2
V2008_003065.jpg
p3404
sg4
F27.224449247785333
ssI7893
(dp3405
g2
V2010_002907.jpg
p3406
sg4
F27.616036786204116
ssI7894
(dp3407
g2
V2011_000152.jpg
p3408
sg4
F21.64658122121692
ssI7895
(dp3409
g2
V2009_004519.jpg
p3410
sg4
F34.07226234881542
ssI7896
(dp3411
g2
V2008_008084.jpg
p3412
sg4
F24.058428845611964
ssI7897
(dp3413
g2
V2008_005008.jpg
p3414
sg4
F26.884654736393706
ssI7898
(dp3415
g2
V2008_005982.jpg
p3416
sg4
F22.13933822602383
ssI7899
(dp3417
g2
V2010_003562.jpg
p3418
sg4
F28.39010813459576
ssI7900
(dp3419
g2
V2008_003467.jpg
p3420
sg4
F21.602121967588896
ssI7901
(dp3421
g2
V2009_000889.jpg
p3422
sg4
F22.50549657075429
ssI7902
(dp3423
g2
V2008_004426.jpg
p3424
sg4
F19.63447006504743
ssI7903
(dp3425
g2
V2011_001650.jpg
p3426
sg4
F26.785654044641504
ssI7904
(dp3427
g2
V2008_004689.jpg
p3428
sg4
F18.65333891862717
ssI7905
(dp3429
g2
V2008_004103.jpg
p3430
sg4
F22.36429790995518
ssI7906
(dp3431
g2
V2010_003149.jpg
p3432
sg4
F24.164681314938115
ssI7907
(dp3433
g2
V2008_000765.jpg
p3434
sg4
F25.443689274299416
ssI7908
(dp3435
g2
V2010_003560.jpg
p3436
sg4
F19.064028587308535
ssI7909
(dp3437
g2
V2008_004955.jpg
p3438
sg4
F23.650283744635782
ssI7910
(dp3439
g2
V2009_004159.jpg
p3440
sg4
F26.48862761031479
ssI7911
(dp3441
g2
V2009_000934.jpg
p3442
sg4
F33.984255728894695
ssI7912
(dp3443
g2
V2009_004336.jpg
p3444
sg4
F22.579530304973407
ssI7913
(dp3445
g2
V2009_005118.jpg
p3446
sg4
F28.71028435434958
ssI7914
(dp3447
g2
V2010_005883.jpg
p3448
sg4
F26.871478619613367
ssI7915
(dp3449
g2
V2010_005111.jpg
p3450
sg4
F28.093696998152723
ssI7916
(dp3451
g2
V2009_001555.jpg
p3452
sg4
F28.787078112343586
ssI7917
(dp3453
g2
V2010_002409.jpg
p3454
sg4
F26.75106930856684
ssI7918
(dp3455
g2
V2009_003608.jpg
p3456
sg4
F12.314018295654328
ssI7919
(dp3457
g2
V2008_007096.jpg
p3458
sg4
F20.15804441055767
ssI7920
(dp3459
g2
V2008_005081.jpg
p3460
sg4
F22.49402171647464
ssI7921
(dp3461
g2
V2009_001816.jpg
p3462
sg4
F27.011468189571573
ssI7922
(dp3463
g2
V2010_002978.jpg
p3464
sg4
F24.103292722749444
ssI7923
(dp3465
g2
V2011_002913.jpg
p3466
sg4
F23.76611644533615
ssI7924
(dp3467
g2
V2008_002616.jpg
p3468
sg4
F20.128796267601427
ssI7925
(dp3469
g2
V2008_007084.jpg
p3470
sg4
F26.202378403185257
ssI7926
(dp3471
g2
V2008_008357.jpg
p3472
sg4
F32.108634862427984
ssI7927
(dp3473
g2
V2011_001891.jpg
p3474
sg4
F24.94597249992577
ssI7928
(dp3475
g2
V2009_004943.jpg
p3476
sg4
F23.058865524672193
ssI7929
(dp3477
g2
V2010_000480.jpg
p3478
sg4
F28.1972174345094
ssI7930
(dp3479
g2
V2008_002714.jpg
p3480
sg4
F23.300343092508363
ssI7931
(dp3481
g2
V2009_003802.jpg
p3482
sg4
F29.678013922957387
ssI7932
(dp3483
g2
V2010_000800.jpg
p3484
sg4
F23.252721042418724
ssI7933
(dp3485
g2
V2008_001580.jpg
p3486
sg4
F29.288105034367685
ssI7934
(dp3487
g2
V2010_005371.jpg
p3488
sg4
F27.83031306002614
ssI7935
(dp3489
g2
V2008_002144.jpg
p3490
sg4
F25.610431714456077
ssI7936
(dp3491
g2
V2010_002905.jpg
p3492
sg4
F20.051815575300292
ssI7937
(dp3493
g2
V2008_006205.jpg
p3494
sg4
F23.164093022864954
ssI7938
(dp3495
g2
V2009_004513.jpg
p3496
sg4
F29.68706483129881
ssI7939
(dp3497
g2
V2008_008649.jpg
p3498
sg4
F27.66924290391088
ssI7940
(dp3499
g2
V2008_006887.jpg
p3500
sg4
F20.730289725934348
ssI7941
(dp3501
g2
V2008_000981.jpg
p3502
sg4
F30.54550104715831
ssI7942
(dp3503
g2
V2009_001260.jpg
p3504
sg4
F27.457661098792915
ssI7943
(dp3505
g2
V2011_000114.jpg
p3506
sg4
F25.331302322300807
ssI7944
(dp3507
g2
V2008_008347.jpg
p3508
sg4
F22.923084101022305
ssI7945
(dp3509
g2
V2010_003490.jpg
p3510
sg4
F31.514885822931813
ssI7946
(dp3511
g2
V2010_000420.jpg
p3512
sg4
F27.856791476255676
ssI7947
(dp3513
g2
V2009_000291.jpg
p3514
sg4
F18.935516809225497
ssI7948
(dp3515
g2
V2011_000058.jpg
p3516
sg4
F27.78527156517656
ssI7949
(dp3517
g2
V2010_005606.jpg
p3518
sg4
F29.514189787401428
ssI7950
(dp3519
g2
V2010_003160.jpg
p3520
sg4
F34.60382837247923
ssI7951
(dp3521
g2
V2010_002487.jpg
p3522
sg4
F23.401296374733217
ssI7952
(dp3523
g2
V2008_008533.jpg
p3524
sg4
F19.20795639634078
ssI7953
(dp3525
g2
V2010_004053.jpg
p3526
sg4
F33.14070251267727
ssI7954
(dp3527
g2
V2009_003351.jpg
p3528
sg4
F31.580489902106898
ssI7955
(dp3529
g2
V2010_005511.jpg
p3530
sg4
F24.36819697000121
ssI7956
(dp3531
g2
V2009_001991.jpg
p3532
sg4
F24.45163096281926
ssI7957
(dp3533
g2
V2010_005415.jpg
p3534
sg4
F23.13637264794522
ssI7958
(dp3535
g2
V2010_002286.jpg
p3536
sg4
F17.01980368527969
ssI7959
(dp3537
g2
V2008_003170.jpg
p3538
sg4
F17.16755806031274
ssI7960
(dp3539
g2
V2008_005713.jpg
p3540
sg4
F17.876697937115388
ssI7961
(dp3541
g2
V2008_004135.jpg
p3542
sg4
F24.182032652811806
ssI7962
(dp3543
g2
V2010_000409.jpg
p3544
sg4
F18.922814648887496
ssI7963
(dp3545
g2
V2009_003185.jpg
p3546
sg4
F26.859780800115313
ssI7964
(dp3547
g2
V2010_004257.jpg
p3548
sg4
F24.09935308603515
ssI7965
(dp3549
g2
V2011_000731.jpg
p3550
sg4
F27.520017712574493
ssI7966
(dp3551
g2
V2011_000347.jpg
p3552
sg4
F30.617376872806712
ssI7967
(dp3553
g2
V2008_006613.jpg
p3554
sg4
F25.226418184520156
ssI7968
(dp3555
g2
V2008_001112.jpg
p3556
sg4
F25.175589823105543
ssI7969
(dp3557
g2
V2008_005331.jpg
p3558
sg4
F21.15243979196911
ssI7970
(dp3559
g2
V2010_003648.jpg
p3560
sg4
F25.52240096623578
ssI7971
(dp3561
g2
V2009_003350.jpg
p3562
sg4
F20.412893571732294
ssI7972
(dp3563
g2
V2008_004850.jpg
p3564
sg4
F23.916983234543427
ssI7973
(dp3565
g2
V2008_005541.jpg
p3566
sg4
F26.585654514651637
ssI7974
(dp3567
g2
V2009_001695.jpg
p3568
sg4
F35.238149580823574
ssI7975
(dp3569
g2
V2010_000461.jpg
p3570
sg4
F22.269578688762902
ssI7976
(dp3571
g2
V2008_001986.jpg
p3572
sg4
F26.54352530242239
ssI7977
(dp3573
g2
V2010_000241.jpg
p3574
sg4
F22.935067244368778
ssI7978
(dp3575
g2
V2010_002532.jpg
p3576
sg4
F14.911984034059707
ssI7979
(dp3577
g2
V2008_006998.jpg
p3578
sg4
F18.716529005195053
ssI7980
(dp3579
g2
V2009_002687.jpg
p3580
sg4
F27.550791934742577
ssI7981
(dp3581
g2
V2008_004021.jpg
p3582
sg4
F18.12831066539648
ssI7982
(dp3583
g2
V2008_001741.jpg
p3584
sg4
F28.275258806279663
ssI7983
(dp3585
g2
V2010_002406.jpg
p3586
sg4
F17.711243303867818
ssI7984
(dp3587
g2
V2009_001768.jpg
p3588
sg4
F21.886736646210966
ssI7985
(dp3589
g2
V2008_002436.jpg
p3590
sg4
F27.97430625119202
ssI7986
(dp3591
g2
V2009_004598.jpg
p3592
sg4
F16.65659977012123
ssI7987
(dp3593
g2
V2010_004567.jpg
p3594
sg4
F23.8937443291912
ssI7988
(dp3595
g2
V2008_008681.jpg
p3596
sg4
F30.208842852237304
ssI7989
(dp3597
g2
V2009_004262.jpg
p3598
sg4
F19.764836408229897
ssI7990
(dp3599
g2
V2009_004213.jpg
p3600
sg4
F29.365144727466326
ssI7991
(dp3601
g2
V2010_001665.jpg
p3602
sg4
F23.417904199736476
ssI7992
(dp3603
g2
V2008_005558.jpg
p3604
sg4
F24.187441790525636
ssI7993
(dp3605
g2
V2010_004404.jpg
p3606
sg4
F19.036745298353956
ssI7994
(dp3607
g2
V2009_000068.jpg
p3608
sg4
F22.527063339699144
ssI7995
(dp3609
g2
V2008_000392.jpg
p3610
sg4
F28.30354126704822
ssI7996
(dp3611
g2
V2008_001529.jpg
p3612
sg4
F28.797932816749203
ssI7997
(dp3613
g2
V2008_002487.jpg
p3614
sg4
F20.524302386897592
ssI7998
(dp3615
g2
V2009_001199.jpg
p3616
sg4
F22.42393822161413
ssI7999
(dp3617
g2
V2008_004742.jpg
p3618
sg4
F14.487230614290398
ssI8000
(dp3619
g2
V2008_003562.jpg
p3620
sg4
F21.66669278603693
ssI8001
(dp3621
g2
V2008_002566.jpg
p3622
sg4
F32.021098079608635
ssI8002
(dp3623
g2
V2008_008490.jpg
p3624
sg4
F29.181410135127
ssI8003
(dp3625
g2
V2008_008675.jpg
p3626
sg4
F21.50965681105385
ssI8004
(dp3627
g2
V2011_000986.jpg
p3628
sg4
F27.951290155759157
ssI8005
(dp3629
g2
V2009_002419.jpg
p3630
sg4
F23.51014380104756
ssI8006
(dp3631
g2
V2008_008591.jpg
p3632
sg4
F30.128053840122085
ssI8007
(dp3633
g2
V2009_001030.jpg
p3634
sg4
F27.419029912270485
ssI8008
(dp3635
g2
V2010_004808.jpg
p3636
sg4
F23.290415862252058
ssI8009
(dp3637
g2
V2009_003497.jpg
p3638
sg4
F27.827965919480825
ssI8010
(dp3639
g2
V2010_000746.jpg
p3640
sg4
F22.925142706008238
ssI8011
(dp3641
g2
V2010_000938.jpg
p3642
sg4
F26.874614651358424
ssI8012
(dp3643
g2
V2008_007613.jpg
p3644
sg4
F31.072553019018578
ssI8013
(dp3645
g2
V2008_004270.jpg
p3646
sg4
F19.244035875135978
ssI8014
(dp3647
g2
V2011_002937.jpg
p3648
sg4
F26.247404529392963
ssI8015
(dp3649
g2
V2008_007108.jpg
p3650
sg4
F29.851834352354174
ssI8016
(dp3651
g2
V2011_001260.jpg
p3652
sg4
F23.536603026760904
ssI8017
(dp3653
g2
V2010_002815.jpg
p3654
sg4
F28.073819744159078
ssI8018
(dp3655
g2
V2008_001404.jpg
p3656
sg4
F23.68093525414477
ssI8019
(dp3657
g2
V2010_003579.jpg
p3658
sg4
F29.798629151951737
ssI8020
(dp3659
g2
V2009_000512.jpg
p3660
sg4
F21.974114556510987
ssI8021
(dp3661
g2
V2010_003576.jpg
p3662
sg4
F21.5263574851606
ssI8022
(dp3663
g2
V2009_001120.jpg
p3664
sg4
F26.32923248868539
ssI8023
(dp3665
g2
V2010_000981.jpg
p3666
sg4
F21.330262808769206
ssI8024
(dp3667
g2
V2008_005742.jpg
p3668
sg4
F33.62664084753778
ssI8025
(dp3669
g2
V2008_002801.jpg
p3670
sg4
F26.8642282329137
ssI8026
(dp3671
g2
V2008_007825.jpg
p3672
sg4
F30.656458574999135
ssI8027
(dp3673
g2
V2008_006761.jpg
p3674
sg4
F27.97094443252692
ssI8028
(dp3675
g2
V2008_005838.jpg
p3676
sg4
F23.12977438524113
ssI8029
(dp3677
g2
V2010_005379.jpg
p3678
sg4
F27.052326764011948
ssI8030
(dp3679
g2
V2008_003864.jpg
p3680
sg4
F30.606202897191263
ssI8031
(dp3681
g2
V2009_001024.jpg
p3682
sg4
F26.932465006170823
ssI8032
(dp3683
g2
V2010_005562.jpg
p3684
sg4
F27.169151832635073
ssI8033
(dp3685
g2
V2008_005345.jpg
p3686
sg4
F16.520476370843983
ssI8034
(dp3687
g2
V2011_002046.jpg
p3688
sg4
F23.135260337690823
ssI8035
(dp3689
g2
V2010_004638.jpg
p3690
sg4
F19.490891657949796
ssI8036
(dp3691
g2
V2008_004042.jpg
p3692
sg4
F31.39702782417286
ssI8037
(dp3693
g2
V2008_002410.jpg
p3694
sg4
F21.153242519301447
ssI8038
(dp3695
g2
V2011_002239.jpg
p3696
sg4
F31.319653473122486
ssI8039
(dp3697
g2
V2008_007683.jpg
p3698
sg4
F24.447778835319347
ssI8040
(dp3699
g2
V2008_005449.jpg
p3700
sg4
F25.750275257124535
ssI8041
(dp3701
g2
V2009_002785.jpg
p3702
sg4
F24.45017428542179
ssI8042
(dp3703
g2
V2008_007476.jpg
p3704
sg4
F25.50833597861559
ssI8043
(dp3705
g2
V2009_000592.jpg
p3706
sg4
F30.612205008854087
ssI8044
(dp3707
g2
V2008_007599.jpg
p3708
sg4
F28.63122340001588
ssI8045
(dp3709
g2
V2008_004361.jpg
p3710
sg4
F25.198040628361976
ssI8046
(dp3711
g2
V2010_003864.jpg
p3712
sg4
F31.00753792387394
ssI8047
(dp3713
g2
V2011_003145.jpg
p3714
sg4
F17.497069987457937
ssI8048
(dp3715
g2
V2010_004844.jpg
p3716
sg4
F30.659780314778214
ssI8049
(dp3717
g2
V2010_004830.jpg
p3718
sg4
F23.610392703626907
ssI8050
(dp3719
g2
V2009_003717.jpg
p3720
sg4
F22.850047926446642
ssI8051
(dp3721
g2
V2008_004984.jpg
p3722
sg4
F29.874415536174077
ssI8052
(dp3723
g2
V2008_002758.jpg
p3724
sg4
F33.31207272800427
ssI8053
(dp3725
g2
V2008_002103.jpg
p3726
sg4
F21.98926576351434
ssI8054
(dp3727
g2
V2011_002109.jpg
p3728
sg4
F24.222587300400992
ssI8055
(dp3729
g2
V2009_001305.jpg
p3730
sg4
F18.684718211715158
ssI8056
(dp3731
g2
V2010_004357.jpg
p3732
sg4
F18.979318515510155
ssI8057
(dp3733
g2
V2009_001363.jpg
p3734
sg4
F25.93150020442409
ssI8058
(dp3735
g2
V2008_006294.jpg
p3736
sg4
F20.97913831211931
ssI8059
(dp3737
g2
V2010_003995.jpg
p3738
sg4
F24.349764835483526
ssI8060
(dp3739
g2
V2009_004671.jpg
p3740
sg4
F25.398894832719574
ssI8061
(dp3741
g2
V2010_001461.jpg
p3742
sg4
F21.414061005332492
ssI8062
(dp3743
g2
V2008_007488.jpg
p3744
sg4
F31.08966391494151
ssI8063
(dp3745
g2
V2009_002977.jpg
p3746
sg4
F26.67619860311246
ssI8064
(dp3747
g2
V2010_000202.jpg
p3748
sg4
F23.389741213452936
ssI8065
(dp3749
g2
V2010_005716.jpg
p3750
sg4
F21.80158085941054
ssI8066
(dp3751
g2
V2010_004345.jpg
p3752
sg4
F35.567294129409795
ssI8067
(dp3753
g2
V2009_000289.jpg
p3754
sg4
F24.532145392232636
ssI8068
(dp3755
g2
V2008_007913.jpg
p3756
sg4
F32.2651090829965
ssI8069
(dp3757
g2
V2008_002062.jpg
p3758
sg4
F18.78745072135656
ssI8070
(dp3759
g2
V2009_003732.jpg
p3760
sg4
F25.391872004232045
ssI8071
(dp3761
g2
V2009_001894.jpg
p3762
sg4
F19.107696549923215
ssI8072
(dp3763
g2
V2011_000030.jpg
p3764
sg4
F29.722807262286366
ssI8073
(dp3765
g2
V2008_002753.jpg
p3766
sg4
F28.599982309224885
ssI8074
(dp3767
g2
V2009_002177.jpg
p3768
sg4
F26.906580004716236
ssI8075
(dp3769
g2
V2010_002496.jpg
p3770
sg4
F27.685137856665065
ssI8076
(dp3771
g2
V2009_004241.jpg
p3772
sg4
F32.798593953714686
ssI8077
(dp3773
g2
V2009_002324.jpg
p3774
sg4
F21.379958507594758
ssI8078
(dp3775
g2
V2008_001267.jpg
p3776
sg4
F26.48504538330108
ssI8079
(dp3777
g2
V2011_001432.jpg
p3778
sg4
F19.735592352687934
ssI8080
(dp3779
g2
V2008_001060.jpg
p3780
sg4
F24.556218353489243
ssI8081
(dp3781
g2
V2008_001161.jpg
p3782
sg4
F21.583705201321585
ssI8082
(dp3783
g2
V2008_003488.jpg
p3784
sg4
F24.701292779855624
ssI8083
(dp3785
g2
V2011_002116.jpg
p3786
sg4
F19.89300647772028
ssI8084
(dp3787
g2
V2011_002100.jpg
p3788
sg4
F18.220404419969604
ssI8085
(dp3789
g2
V2010_000493.jpg
p3790
sg4
F33.11466457224211
ssI8086
(dp3791
g2
V2008_001134.jpg
p3792
sg4
F22.965758270831454
ssI8087
(dp3793
g2
V2009_002579.jpg
p3794
sg4
F30.16384599799016
ssI8088
(dp3795
g2
V2010_005013.jpg
p3796
sg4
F22.76216909407933
ssI8089
(dp3797
g2
V2009_002940.jpg
p3798
sg4
F24.148587442076046
ssI8090
(dp3799
g2
V2010_003406.jpg
p3800
sg4
F23.504270422205224
ssI8091
(dp3801
g2
V2008_006576.jpg
p3802
sg4
F22.330890494283864
ssI8092
(dp3803
g2
V2011_003085.jpg
p3804
sg4
F24.96930510146849
ssI8093
(dp3805
g2
V2011_001471.jpg
p3806
sg4
F21.394595354208942
ssI8094
(dp3807
g2
V2010_001275.jpg
p3808
sg4
F21.985378804180197
ssI8095
(dp3809
g2
V2009_004786.jpg
p3810
sg4
F35.83302495965606
ssI8096
(dp3811
g2
V2011_001944.jpg
p3812
sg4
F31.728170063144876
ssI8097
(dp3813
g2
V2011_002579.jpg
p3814
sg4
F27.29590978105576
ssI8098
(dp3815
g2
V2010_004515.jpg
p3816
sg4
F22.893443588912977
ssI8099
(dp3817
g2
V2011_001114.jpg
p3818
sg4
F19.639551856719507
ssI8100
(dp3819
g2
V2011_001769.jpg
p3820
sg4
F30.214295396186017
ssI8101
(dp3821
g2
V2011_001625.jpg
p3822
sg4
F27.330028188562803
ssI8102
(dp3823
g2
V2009_003327.jpg
p3824
sg4
F21.60664241142106
ssI8103
(dp3825
g2
V2008_007425.jpg
p3826
sg4
F22.74879669627414
ssI8104
(dp3827
g2
V2009_003010.jpg
p3828
sg4
F24.718052549181607
ssI8105
(dp3829
g2
V2009_001288.jpg
p3830
sg4
F22.265435596357882
ssI8106
(dp3831
g2
V2010_002219.jpg
p3832
sg4
F32.038863172369446
ssI8107
(dp3833
g2
V2010_003610.jpg
p3834
sg4
F24.452623896664353
ssI8108
(dp3835
g2
V2010_001978.jpg
p3836
sg4
F28.380780655175617
ssI8109
(dp3837
g2
V2008_005156.jpg
p3838
sg4
F27.305717757494715
ssI8110
(dp3839
g2
V2011_001323.jpg
p3840
sg4
F20.732125583307937
ssI8111
(dp3841
g2
V2011_000102.jpg
p3842
sg4
F27.150440758572525
ssI8112
(dp3843
g2
V2010_001540.jpg
p3844
sg4
F22.04330171381854
ssI8113
(dp3845
g2
V2010_000490.jpg
p3846
sg4
F27.298004051578694
ssI8114
(dp3847
g2
V2010_001270.jpg
p3848
sg4
F34.99224732984304
ssI8115
(dp3849
g2
V2011_000628.jpg
p3850
sg4
F31.310599923489757
ssI8116
(dp3851
g2
V2010_005928.jpg
p3852
sg4
F23.720116850078334
ssI8117
(dp3853
g2
V2008_003799.jpg
p3854
sg4
F25.636046848093443
ssI8118
(dp3855
g2
V2011_001117.jpg
p3856
sg4
F23.831591080191625
ssI8119
(dp3857
g2
V2009_003208.jpg
p3858
sg4
F33.35580634735396
ssI8120
(dp3859
g2
V2009_004347.jpg
p3860
sg4
F29.495457980952636
ssI8121
(dp3861
g2
V2010_001801.jpg
p3862
sg4
F25.14854742416804
ssI8122
(dp3863
g2
V2010_001143.jpg
p3864
sg4
F28.091348473063228
ssI8123
(dp3865
g2
V2011_001870.jpg
p3866
sg4
F31.55697493659705
ssI8124
(dp3867
g2
V2010_001836.jpg
p3868
sg4
F18.21242681188792
ssI8125
(dp3869
g2
V2009_004231.jpg
p3870
sg4
F27.13621461591936
ssI8126
(dp3871
g2
V2010_002364.jpg
p3872
sg4
F23.803026744243223
ssI8127
(dp3873
g2
V2010_000983.jpg
p3874
sg4
F24.50443715881656
ssI8128
(dp3875
g2
V2008_003437.jpg
p3876
sg4
F22.227117583013744
ssI8129
(dp3877
g2
V2011_000513.jpg
p3878
sg4
F23.921936065541516
ssI8130
(dp3879
g2
V2008_008480.jpg
p3880
sg4
F23.432295986957037
ssI8131
(dp3881
g2
V2008_005599.jpg
p3882
sg4
F27.444842752231317
ssI8132
(dp3883
g2
V2009_004874.jpg
p3884
sg4
F19.81187434378287
ssI8133
(dp3885
g2
V2008_007098.jpg
p3886
sg4
F22.347807882821503
ssI8134
(dp3887
g2
V2009_000690.jpg
p3888
sg4
F23.24295041903712
ssI8135
(dp3889
g2
V2008_004110.jpg
p3890
sg4
F25.30987610296822
ssI8136
(dp3891
g2
V2008_002971.jpg
p3892
sg4
F27.85906858877963
ssI8137
(dp3893
g2
V2011_001754.jpg
p3894
sg4
F26.99888623523156
ssI8138
(dp3895
g2
V2010_001257.jpg
p3896
sg4
F30.19701934551971
ssI8139
(dp3897
g2
V2008_006979.jpg
p3898
sg4
F25.82216397956156
ssI8140
(dp3899
g2
V2008_007538.jpg
p3900
sg4
F22.446160043681814
ssI8141
(dp3901
g2
V2009_005202.jpg
p3902
sg4
F23.25729329245484
ssI8142
(dp3903
g2
V2010_002468.jpg
p3904
sg4
F18.602093963221595
ssI8143
(dp3905
g2
V2008_007491.jpg
p3906
sg4
F23.826022517275938
ssI8144
(dp3907
g2
V2008_003498.jpg
p3908
sg4
F32.345816037704566
ssI8145
(dp3909
g2
V2008_007768.jpg
p3910
sg4
F22.47714278380555
ssI8146
(dp3911
g2
V2009_004095.jpg
p3912
sg4
F25.0198465276246
ssI8147
(dp3913
g2
V2011_002461.jpg
p3914
sg4
F13.382567256568242
ssI8148
(dp3915
g2
V2010_002721.jpg
p3916
sg4
F26.687251477751236
ssI8149
(dp3917
g2
V2008_002848.jpg
p3918
sg4
F23.723873656244265
ssI8150
(dp3919
g2
V2010_006033.jpg
p3920
sg4
F32.97739588330027
ssI8151
(dp3921
g2
V2011_002814.jpg
p3922
sg4
F33.937775623898794
ssI8152
(dp3923
g2
V2009_004728.jpg
p3924
sg4
F16.483175814780303
ssI8153
(dp3925
g2
V2009_003005.jpg
p3926
sg4
F16.18256981133744
ssI8154
(dp3927
g2
V2011_001727.jpg
p3928
sg4
F17.313793262545104
ssI8155
(dp3929
g2
V2008_000861.jpg
p3930
sg4
F23.27919662500214
ssI8156
(dp3931
g2
V2008_000393.jpg
p3932
sg4
F34.90034410651064
ssI8157
(dp3933
g2
V2011_000257.jpg
p3934
sg4
F24.820780589375147
ssI8158
(dp3935
g2
V2008_007274.jpg
p3936
sg4
F16.693372571654717
ssI8159
(dp3937
g2
V2008_004123.jpg
p3938
sg4
F25.142207468707216
ssI8160
(dp3939
g2
V2008_007891.jpg
p3940
sg4
F21.9394968434918
ssI8161
(dp3941
g2
V2008_002365.jpg
p3942
sg4
F29.730272709665886
ssI8162
(dp3943
g2
V2008_006663.jpg
p3944
sg4
F29.775484131000805
ssI8163
(dp3945
g2
V2009_003042.jpg
p3946
sg4
F24.59395099050634
ssI8164
(dp3947
g2
V2010_001837.jpg
p3948
sg4
F26.74647287363456
ssI8165
(dp3949
g2
V2011_001105.jpg
p3950
sg4
F27.198270654789813
ssI8166
(dp3951
g2
V2008_001307.jpg
p3952
sg4
F24.313752387187154
ssI8167
(dp3953
g2
V2011_002624.jpg
p3954
sg4
F31.033903320780905
ssI8168
(dp3955
g2
V2010_000132.jpg
p3956
sg4
F19.906276626032106
ssI8169
(dp3957
g2
V2009_002645.jpg
p3958
sg4
F22.256262384173453
ssI8170
(dp3959
g2
V2011_000631.jpg
p3960
sg4
F37.706201599515055
ssI8171
(dp3961
g2
V2008_003589.jpg
p3962
sg4
F36.02865552939429
ssI8172
(dp3963
g2
V2009_004590.jpg
p3964
sg4
F22.901730669008256
ssI8173
(dp3965
g2
V2009_002710.jpg
p3966
sg4
F27.02211764613456
ssI8174
(dp3967
g2
V2010_005170.jpg
p3968
sg4
F30.91646676640652
ssI8175
(dp3969
g2
V2008_004749.jpg
p3970
sg4
F24.4089114381857
ssI8176
(dp3971
g2
V2010_000874.jpg
p3972
sg4
F29.572069058291632
ssI8177
(dp3973
g2
V2008_007604.jpg
p3974
sg4
F28.36417069079275
ssI8178
(dp3975
g2
V2010_005075.jpg
p3976
sg4
F27.79650736510346
ssI8179
(dp3977
g2
V2008_004687.jpg
p3978
sg4
F24.585164668437546
ssI8180
(dp3979
g2
V2011_000969.jpg
p3980
sg4
F30.536209760145944
ssI8181
(dp3981
g2
V2008_007932.jpg
p3982
sg4
F21.492706971516508
ssI8182
(dp3983
g2
V2009_001623.jpg
p3984
sg4
F23.13962070348492
ssI8183
(dp3985
g2
V2010_003183.jpg
p3986
sg4
F28.60006063935799
ssI8184
(dp3987
g2
V2009_003520.jpg
p3988
sg4
F29.119691130314795
ssI8185
(dp3989
g2
V2009_000405.jpg
p3990
sg4
F29.160026173656238
ssI8186
(dp3991
g2
V2010_001286.jpg
p3992
sg4
F21.56056606425305
ssI8187
(dp3993
g2
V2009_000177.jpg
p3994
sg4
F23.089665328659912
ssI8188
(dp3995
g2
V2008_006841.jpg
p3996
sg4
F30.035339131770254
ssI8189
(dp3997
g2
V2008_008487.jpg
p3998
sg4
F26.33256987823829
ssI8190
(dp3999
g2
V2008_007265.jpg
p4000
sg4
F22.545379482238175
ssI8191
(dp4001
g2
V2009_001299.jpg
p4002
sg4
F19.77080876077715
ss.