(dp0
S'experiment_details'
p1
(dp2
I1
(dp3
S'cat_4'
p4
Fnan
sS'cat_5'
p5
Fnan
sS'tone_hz'
p6
S'No tone'
p7
sS'cat_1'
p8
S' cat'
p9
sS'cat_2'
p10
Fnan
sS'cat_3'
p11
Fnan
sS'keys'
p12
NsS'question'
p13
Fnan
sS'space'
p14
g14
sS'load'
p15
S'low'
p16
sS'image_name'
p17
S'2009_004225.jpg'
p18
sS'trueskill'
p19
F12.7290334447
sS'image_number'
p20
I0
sS'block_number'
p21
I1
sS'RT_TO'
p22
F6.666
sS'exemplar'
p23
S' cat'
p24
sS'useless'
p25
NsS'tone_onset'
p26
L-999L
sS'RT_VS'
p27
NsS'trial_type'
p28
S'Normal'
p29
sS'present_absent'
p30
S'No Target'
p31
ssI2
(dp32
g4
Fnan
sg5
Fnan
sg6
g7
sg8
S' horse'
p33
sg10
Fnan
sg11
Fnan
sg12
Nsg13
Fnan
sg14
g14
sg15
g16
sg17
S'2010_001829.jpg'
p34
sg19
F19.2344013367
sg20
I1
sg21
I1
sg22
F6.666
sg23
S' horse'
p35
sg25
Nsg26
L-999L
sg27
Nsg28
g29
sg30
g31
ssI3
(dp36
g4
Fnan
sg5
Fnan
sg6
g7
sg8
S' person'
p37
sg10
S' sofa'
p38
sg11
Fnan
sg12
Nsg13
Fnan
sg14
g14
sg15
g16
sg17
S'2008_004270.jpg'
p39
sg19
F19.2440358751
sg20
I2
sg21
I1
sg22
F6.666
sg23
S' sofa'
p40
sg25
Nsg26
L-999L
sg27
Nsg28
g29
sg30
g31
ssI4
(dp41
g4
Fnan
sg5
Fnan
sg6
g7
sg8
S' car'
p42
sg10
S' person'
p43
sg11
Fnan
sg12
Nsg13
Fnan
sg14
g14
sg15
g16
sg17
S'2011_002303.jpg'
p44
sg19
F20.6957146074
sg20
I3
sg21
I1
sg22
F6.666
sg23
S' car'
p45
sg25
Nsg26
L-999L
sg27
Nsg28
g29
sg30
g31
ssI5
(dp46
g4
Fnan
sg5
Fnan
sg6
g7
sg8
S' dog'
p47
sg10
Fnan
sg11
Fnan
sg12
Nsg13
Fnan
sg14
g14
sg15
g16
sg17
S'2010_005885.jpg'
p48
sg19
F20.0746861318
sg20
I4
sg21
I1
sg22
F6.666
sg23
S' dog'
p49
sg25
Nsg26
L-999L
sg27
Nsg28
g29
sg30
g31
ssI6
(dp50
g4
Fnan
sg5
Fnan
sg6
g7
sg8
S' boat'
p51
sg10
Fnan
sg11
Fnan
sg12
Nsg13
Fnan
sg14
g14
sg15
g16
sg17
S'2008_001040.jpg'
p52
sg19
F20.2100437036
sg20
I5
sg21
I1
sg22
F6.666
sg23
S' boat'
p53
sg25
Nsg26
L-999L
sg27
Nsg28
g29
sg30
g31
ssI7
(dp54
g4
Fnan
sg5
Fnan
sg6
g7
sg8
g51
sg10
Fnan
sg11
Fnan
sg12
Nsg13
Fnan
sg14
g14
sg15
g16
sg17
S'2010_004662.jpg'
p55
sg19
F21.1986204175
sg20
I6
sg21
I1
sg22
F6.666
sg23
g53
sg25
Nsg26
L-999L
sg27
Nsg28
g29
sg30
g31
ssI8
(dp56
g4
Fnan
sg5
Fnan
sg6
g7
sg8
g51
sg10
Fnan
sg11
Fnan
sg12
Nsg13
Fnan
sg14
g14
sg15
g16
sg17
S'2010_005780.jpg'
p57
sg19
F16.8463365792
sg20
I7
sg21
I1
sg22
F6.666
sg23
g53
sg25
Nsg26
L-999L
sg27
Nsg28
g29
sg30
g31
ssI9
(dp58
g4
Fnan
sg5
Fnan
sg6
g7
sg8
S' bottle'
p59
sg10
Fnan
sg11
Fnan
sg12
S'q'
p60
sg13
S' bird'
p61
sg14
g14
sg15
g16
sg17
S'2009_002594.jpg'
p62
sg19
F19.0962373595
sg20
I8
sg21
I1
sg22
F6.666
sg23
S' bottle'
p63
sg25
I-999
sg26
L-999L
sg27
F6.66
sg28
g29
sg30
S'Target Absent'
p64
ssI10
(dp65
g4
Fnan
sg5
Fnan
sg6
g7
sg8
g47
sg10
Fnan
sg11
Fnan
sg12
Nsg13
Fnan
sg14
g14
sg15
g16
sg17
S'2009_001568.jpg'
p66
sg19
F17.1025902592
sg20
I9
sg21
I1
sg22
F6.666
sg23
g49
sg25
Nsg26
L-999L
sg27
Nsg28
g29
sg30
g31
ssI11
(dp67
g4
Fnan
sg5
Fnan
sg6
g7
sg8
g37
sg10
S' dog'
p68
sg11
Fnan
sg12
Nsg13
Fnan
sg14
g14
sg15
g16
sg17
S'2008_005046.jpg'
p69
sg19
F20.7128987687
sg20
I10
sg21
I1
sg22
F6.666
sg23
g49
sg25
Nsg26
L-999L
sg27
Nsg28
g29
sg30
g31
ssI12
(dp70
g4
Fnan
sg5
Fnan
sg6
g7
sg8
g9
sg10
Fnan
sg11
Fnan
sg12
g60
sg13
S' cat'
p71
sg14
g14
sg15
g16
sg17
S'2008_001836.jpg'
p72
sg19
F20.4638836895
sg20
I11
sg21
I1
sg22
F6.666
sg23
g24
sg25
I-999
sg26
L-999L
sg27
F6.66
sg28
g29
sg30
S'Target Present'
p73
ssI13
(dp74
g4
Fnan
sg5
Fnan
sg6
g7
sg8
g42
sg10
Fnan
sg11
Fnan
sg12
g60
sg13
S' boat'
p75
sg14
g14
sg15
g16
sg17
S'2009_004594.jpg'
p76
sg19
F19.0301781524
sg20
I12
sg21
I1
sg22
F6.666
sg23
g45
sg25
I-999
sg26
L-999L
sg27
F6.66
sg28
g29
sg30
g64
ssI14
(dp77
g4
Fnan
sg5
Fnan
sg6
g7
sg8
g37
sg10
S' bottle'
p78
sg11
Fnan
sg12
Nsg13
Fnan
sg14
g14
sg15
g16
sg17
S'2008_004814.jpg'
p79
sg19
F19.8690992474
sg20
I13
sg21
I1
sg22
F6.666
sg23
g63
sg25
Nsg26
L-999L
sg27
Nsg28
g29
sg30
g31
ssI15
(dp80
g4
Fnan
sg5
Fnan
sg6
g7
sg8
g37
sg10
S' boat'
p81
sg11
Fnan
sg12
Nsg13
Fnan
sg14
g14
sg15
g16
sg17
S'2008_008083.jpg'
p82
sg19
F18.6424504286
sg20
I14
sg21
I1
sg22
F6.666
sg23
S' person'
p83
sg25
Nsg26
L-999L
sg27
Nsg28
g29
sg30
g31
ssI16
(dp84
g4
Fnan
sg5
Fnan
sg6
g7
sg8
g37
sg10
Fnan
sg11
Fnan
sg12
Nsg13
Fnan
sg14
g14
sg15
g16
sg17
S'2008_001098.jpg'
p85
sg19
F15.903696109
sg20
I15
sg21
I1
sg22
F6.666
sg23
g83
sg25
Nsg26
L-999L
sg27
Nsg28
g29
sg30
g31
ssI17
(dp86
g4
Fnan
sg5
Fnan
sg6
g7
sg8
g37
sg10
Fnan
sg11
Fnan
sg12
Nsg13
Fnan
sg14
g14
sg15
g16
sg17
S'2008_002700.jpg'
p87
sg19
F21.051373291199997
sg20
I16
sg21
I1
sg22
F6.666
sg23
g83
sg25
Nsg26
L-999L
sg27
Nsg28
g29
sg30
g31
ssI18
(dp88
g4
Fnan
sg5
Fnan
sg6
g7
sg8
g37
sg10
S' cat'
p89
sg11
Fnan
sg12
Nsg13
Fnan
sg14
g14
sg15
g16
sg17
S'2009_002439.jpg'
p90
sg19
F20.1398778052
sg20
I17
sg21
I1
sg22
F6.666
sg23
g83
sg25
Nsg26
L-999L
sg27
Nsg28
g29
sg30
g31
ssI19
(dp91
g4
Fnan
sg5
Fnan
sg6
g7
sg8
g33
sg10
Fnan
sg11
Fnan
sg12
Nsg13
Fnan
sg14
g14
sg15
g16
sg17
S'2009_003232.jpg'
p92
sg19
F20.957748315299998
sg20
I18
sg21
I1
sg22
F6.666
sg23
g35
sg25
Nsg26
L-999L
sg27
Nsg28
g29
sg30
g31
ssI20
(dp93
g4
Fnan
sg5
Fnan
sg6
g7
sg8
g47
sg10
Fnan
sg11
Fnan
sg12
Nsg13
Fnan
sg14
g14
sg15
g16
sg17
S'2010_000811.jpg'
p94
sg19
F18.0450356506
sg20
I19
sg21
I1
sg22
F6.666
sg23
g49
sg25
Nsg26
L-999L
sg27
Nsg28
g29
sg30
g31
ssI21
(dp95
g4
Fnan
sg5
Fnan
sg6
g7
sg8
g37
sg10
Fnan
sg11
Fnan
sg12
Nsg13
Fnan
sg14
g14
sg15
g16
sg17
S'2008_002145.jpg'
p96
sg19
F18.8795575328
sg20
I20
sg21
I1
sg22
F6.666
sg23
g83
sg25
Nsg26
L-999L
sg27
Nsg28
g29
sg30
g31
ssI22
(dp97
g4
Fnan
sg5
Fnan
sg6
g7
sg8
g59
sg10
Fnan
sg11
Fnan
sg12
Nsg13
Fnan
sg14
g14
sg15
g16
sg17
S'2010_002956.jpg'
p98
sg19
F16.5988748608
sg20
I21
sg21
I1
sg22
F6.666
sg23
g63
sg25
Nsg26
L-999L
sg27
Nsg28
g29
sg30
g31
ssI23
(dp99
g4
Fnan
sg5
Fnan
sg6
g7
sg8
g51
sg10
Fnan
sg11
Fnan
sg12
Nsg13
Fnan
sg14
g14
sg15
g16
sg17
S'2009_000919.jpg'
p100
sg19
F19.2535195999
sg20
I22
sg21
I1
sg22
F6.666
sg23
g53
sg25
Nsg26
L-999L
sg27
Nsg28
g29
sg30
g31
ssI24
(dp101
g4
Fnan
sg5
Fnan
sg6
g7
sg8
g9
sg10
Fnan
sg11
Fnan
sg12
Nsg13
Fnan
sg14
g14
sg15
g16
sg17
S'2009_000716.jpg'
p102
sg19
F20.5373535376
sg20
I23
sg21
I1
sg22
F6.666
sg23
g24
sg25
Nsg26
L-999L
sg27
Nsg28
g29
sg30
g31
sssS'observer_details'
p103
(dp104
VAge
p105
V1
p106
sVSex
p107
V
p108
sS'date'
p109
S'2017_Oct_03_1855'
p110
sS'expName'
p111
S'participant info'
p112
sVRight handed?
p113
S'1'
p114
sVParticipant no.
p115
V666
p116
ss.