(dp0
S'experiment_details'
p1
(dp2
I1
(dp3
S'cat_4'
p4
S' bottle'
p5
sS'cat_5'
p6
Fnan
sS'tone_hz'
p7
S'No tone'
p8
sS'cat_1'
p9
S' person'
p10
sS'cat_2'
p11
S' chair'
p12
sS'cat_3'
p13
S' diningtable'
p14
sS'keys'
p15
NsS'question'
p16
Fnan
sS'space'
p17
NsS'load'
p18
S'high'
p19
sS'image_name'
p20
S'2010_001682.jpg'
p21
sS'trueskill'
p22
F33.4787504727
sS'image_number'
p23
I0
sS'block_number'
p24
I1
sS'RT_TO'
p25
NsS'exemplar'
p26
S' bottle'
p27
sS'useless'
p28
NsS'tone_onset'
p29
L-999L
sS'RT_VS'
p30
NsS'trial_type'
p31
S'Normal'
p32
sS'present_absent'
p33
S'No Target'
p34
ssI2
(dp35
g4
Fnan
sg6
Fnan
sg7
g8
sg9
g10
sg11
S' diningtable'
p36
sg13
S' bottle'
p37
sg15
Nsg16
Fnan
sg17
Nsg18
g19
sg20
S'2008_002736.jpg'
p38
sg22
F36.4140422377
sg23
I1
sg24
I1
sg25
Nsg26
g27
sg28
Nsg29
L-999L
sg30
Nsg31
g32
sg33
g34
ssI3
(dp39
g4
Fnan
sg6
Fnan
sg7
g8
sg9
S' cat'
p40
sg11
Fnan
sg13
Fnan
sg15
Nsg16
Fnan
sg17
Nsg18
g19
sg20
S'2010_000815.jpg'
p41
sg22
F30.306707617199997
sg23
I2
sg24
I1
sg25
Nsg26
S' cat'
p42
sg28
Nsg29
L-999L
sg30
Nsg31
g32
sg33
g34
ssI4
(dp43
g4
Fnan
sg6
Fnan
sg7
g8
sg9
S' dog'
p44
sg11
Fnan
sg13
Fnan
sg15
S'p'
p45
sg16
S' boat'
p46
sg17
Nsg18
g19
sg20
S'2010_002775.jpg'
p47
sg22
F29.7778405817
sg23
I3
sg24
I1
sg25
Nsg26
S' dog'
p48
sg28
I-999
sg29
L-999L
sg30
F2.550701079337159
sg31
g32
sg33
S'Target Absent'
p49
ssI5
(dp50
g4
Fnan
sg6
Fnan
sg7
g8
sg9
g44
sg11
S' bottle'
p51
sg13
Fnan
sg15
Nsg16
Fnan
sg17
Nsg18
g19
sg20
S'2011_002098.jpg'
p52
sg22
F41.9971447032
sg23
I4
sg24
I1
sg25
Nsg26
g48
sg28
Nsg29
L-999L
sg30
Nsg31
g32
sg33
g34
ssI6
(dp53
g4
Fnan
sg6
Fnan
sg7
g8
sg9
g10
sg11
S' horse'
p54
sg13
S' dog'
p55
sg15
Nsg16
Fnan
sg17
Nsg18
g19
sg20
S'2010_005270.jpg'
p56
sg22
F31.3724599987
sg23
I5
sg24
I1
sg25
Nsg26
S' horse'
p57
sg28
Nsg29
L-999L
sg30
Nsg31
g32
sg33
g34
ssI7
(dp58
g4
Fnan
sg6
Fnan
sg7
g8
sg9
g10
sg11
S' motorbike'
p59
sg13
Fnan
sg15
Nsg16
Fnan
sg17
Nsg18
g19
sg20
S'2008_002774.jpg'
p60
sg22
F32.1233073623
sg23
I6
sg24
I1
sg25
Nsg26
S' person'
p61
sg28
Nsg29
L-999L
sg30
Nsg31
g32
sg33
g34
ssI8
(dp62
g4
S' sofa'
p63
sg6
Fnan
sg7
g8
sg9
S' pottedplant'
p64
sg11
S' tvmonitor'
p65
sg13
S' chair'
p66
sg15
S'p'
p67
sg16
S' sofa'
p68
sg17
Nsg18
g19
sg20
S'2011_002810.jpg'
p69
sg22
F35.6366042017
sg23
I7
sg24
I1
sg25
Nsg26
S' pottedplant'
p70
sg28
I-999
sg29
L-999L
sg30
F3.0412598094917485
sg31
g32
sg33
g49
ssI9
(dp71
g4
Fnan
sg6
Fnan
sg7
g8
sg9
S' car'
p72
sg11
S' aeroplane'
p73
sg13
Fnan
sg15
Nsg16
Fnan
sg17
Nsg18
g19
sg20
S'2010_005718.jpg'
p74
sg22
F32.2245207666
sg23
I8
sg24
I1
sg25
Nsg26
S' aeroplane'
p75
sg28
Nsg29
L-999L
sg30
Nsg31
g32
sg33
g34
ssI10
(dp76
g4
Fnan
sg6
Fnan
sg7
g8
sg9
g72
sg11
S' bicycle'
p77
sg13
Fnan
sg15
Nsg16
Fnan
sg17
Nsg18
g19
sg20
S'2009_004364.jpg'
p78
sg22
F28.730946257
sg23
I9
sg24
I1
sg25
Nsg26
S' car'
p79
sg28
Nsg29
L-999L
sg30
Nsg31
g32
sg33
g34
ssI11
(dp80
g4
Fnan
sg6
Fnan
sg7
g8
sg9
g44
sg11
Fnan
sg13
Fnan
sg15
Nsg16
Fnan
sg17
Nsg18
g19
sg20
S'2008_007057.jpg'
p81
sg22
F40.7731212751
sg23
I10
sg24
I1
sg25
Nsg26
g48
sg28
Nsg29
L-999L
sg30
Nsg31
g32
sg33
g34
ssI12
(dp82
g4
Fnan
sg6
Fnan
sg7
g8
sg9
S' chair'
p83
sg11
S' bird'
p84
sg13
g14
sg15
Nsg16
Fnan
sg17
Nsg18
g19
sg20
S'2011_001139.jpg'
p85
sg22
F29.361755720300003
sg23
I11
sg24
I1
sg25
Nsg26
S' bird'
p86
sg28
Nsg29
L-999L
sg30
Nsg31
g32
sg33
g34
ssI13
(dp87
g4
Fnan
sg6
Fnan
sg7
g8
sg9
g10
sg11
g12
sg13
g37
sg15
Nsg16
Fnan
sg17
Nsg18
g19
sg20
S'2011_002641.jpg'
p88
sg22
F33.381115383499996
sg23
I12
sg24
I1
sg25
Nsg26
S' chair'
p89
sg28
Nsg29
L-999L
sg30
Nsg31
g32
sg33
g34
ssI14
(dp90
g4
Fnan
sg6
Fnan
sg7
g8
sg9
g10
sg11
g54
sg13
Fnan
sg15
Nsg16
Fnan
sg17
Nsg18
g19
sg20
S'2011_000628.jpg'
p91
sg22
F31.3105999235
sg23
I13
sg24
I1
sg25
Nsg26
g57
sg28
Nsg29
L-999L
sg30
Nsg31
g32
sg33
g34
ssI15
(dp92
g4
Fnan
sg6
Fnan
sg7
g8
sg9
g10
sg11
g73
sg13
Fnan
sg15
S'q'
p93
sg16
S' person'
p94
sg17
Nsg18
g19
sg20
S'2009_003705.jpg'
p95
sg22
F29.5473061136
sg23
I14
sg24
I1
sg25
Nsg26
g75
sg28
I-999
sg29
L-999L
sg30
F2.7083572454866953
sg31
g32
sg33
g49
ssI16
(dp96
g4
Fnan
sg6
Fnan
sg7
g8
sg9
g10
sg11
g73
sg13
Fnan
sg15
Nsg16
Fnan
sg17
Nsg18
g19
sg20
S'2008_003575.jpg'
p97
sg22
F31.070624342
sg23
I15
sg24
I1
sg25
Nsg26
g75
sg28
Nsg29
L-999L
sg30
Nsg31
g32
sg33
g34
ssI17
(dp98
g4
Fnan
sg6
Fnan
sg7
g8
sg9
S' boat'
p99
sg11
Fnan
sg13
Fnan
sg15
Nsg16
Fnan
sg17
Nsg18
g19
sg20
S'2008_003449.jpg'
p100
sg22
F34.708650155
sg23
I16
sg24
I1
sg25
Nsg26
S' boat'
p101
sg28
Nsg29
L-999L
sg30
Nsg31
g32
sg33
g34
ssI18
(dp102
g4
g5
sg6
Fnan
sg7
g8
sg9
g10
sg11
g12
sg13
g14
sg15
S'p'
p103
sg16
g68
sg17
Nsg18
g19
sg20
S'2010_004778.jpg'
p104
sg22
F30.060591862
sg23
I17
sg24
I1
sg25
Nsg26
g27
sg28
I-999
sg29
L-999L
sg30
F2.605864392091462
sg31
g32
sg33
g49
ssI19
(dp105
g4
Fnan
sg6
Fnan
sg7
g8
sg9
g10
sg11
g54
sg13
Fnan
sg15
Nsg16
Fnan
sg17
Nsg18
g19
sg20
S'2008_008500.jpg'
p106
sg22
F33.9683529801
sg23
I18
sg24
I1
sg25
Nsg26
g57
sg28
Nsg29
L-999L
sg30
Nsg31
g32
sg33
g34
ssI20
(dp107
g4
Fnan
sg6
Fnan
sg7
g8
sg9
S' sofa'
p108
sg11
S' person'
p109
sg13
Fnan
sg15
S'q'
p110
sg16
g68
sg17
Nsg18
g19
sg20
S'2008_007091.jpg'
p111
sg22
F31.051868344899997
sg23
I19
sg24
I1
sg25
Nsg26
S' sofa'
p112
sg28
I-999
sg29
L-999L
sg30
F2.57890770679478
sg31
g32
sg33
S'Target Present'
p113
ssI21
(dp114
g4
Fnan
sg6
Fnan
sg7
g8
sg9
g10
sg11
S' dog'
p115
sg13
Fnan
sg15
Nsg16
Fnan
sg17
Nsg18
g19
sg20
S'2008_004188.jpg'
p116
sg22
F37.0063872622
sg23
I20
sg24
I1
sg25
Nsg26
g48
sg28
Nsg29
L-999L
sg30
Nsg31
g32
sg33
g34
ssI22
(dp117
g4
Fnan
sg6
Fnan
sg7
g8
sg9
g83
sg11
g36
sg13
Fnan
sg15
Nsg16
Fnan
sg17
Nsg18
g19
sg20
S'2009_003520.jpg'
p118
sg22
F29.1196911303
sg23
I21
sg24
I1
sg25
Nsg26
g89
sg28
Nsg29
L-999L
sg30
Nsg31
g32
sg33
g34
ssI23
(dp119
g4
Fnan
sg6
Fnan
sg7
g8
sg9
g10
sg11
S' sofa'
p120
sg13
Fnan
sg15
S'q'
p121
sg16
g94
sg17
Nsg18
g19
sg20
S'2008_000541.jpg'
p122
sg22
F29.6390102391
sg23
I22
sg24
I1
sg25
Nsg26
g61
sg28
I-999
sg29
L-999L
sg30
F2.2878694916162203
sg31
g32
sg33
g113
ssI24
(dp123
g4
Fnan
sg6
Fnan
sg7
g8
sg9
g72
sg11
Fnan
sg13
Fnan
sg15
Nsg16
Fnan
sg17
Nsg18
g19
sg20
S'2009_005133.jpg'
p124
sg22
F29.2704648354
sg23
I23
sg24
I1
sg25
Nsg26
g79
sg28
Nsg29
L-999L
sg30
Nsg31
g32
sg33
g34
ssI25
(dp125
g4
Fnan
sg6
Fnan
sg7
g8
sg9
g10
sg11
g54
sg13
Fnan
sg15
Nsg16
Fnan
sg17
Nsg18
g19
sg20
S'2008_006912.jpg'
p126
sg22
F28.9362392217
sg23
I24
sg24
I1
sg25
Nsg26
g57
sg28
Nsg29
L-999L
sg30
Nsg31
g32
sg33
g34
ssI26
(dp127
g4
Fnan
sg6
Fnan
sg7
g8
sg9
g64
sg11
g12
sg13
g14
sg15
Nsg16
Fnan
sg17
Nsg18
g19
sg20
S'2008_007388.jpg'
p128
sg22
F28.766357844499996
sg23
I25
sg24
I1
sg25
Nsg26
g89
sg28
Nsg29
L-999L
sg30
Nsg31
g32
sg33
g34
ssI27
(dp129
g4
Fnan
sg6
Fnan
sg7
S'tone1'
p130
sg9
g10
sg11
g51
sg13
Fnan
sg15
Nsg16
Fnan
sg17
S'space'
p131
sg18
g19
sg20
S'2008_004991.jpg'
p132
sg22
F28.916515369699997
sg23
I26
sg24
I1
sg25
F1.348019652936273
sg26
g27
sg28
Nsg29
L400L
sg30
Nsg31
S'Critical'
p133
sg33
g34
ssI28
(dp134
g4
Fnan
sg6
Fnan
sg7
g8
sg9
g10
sg11
S' train'
p135
sg13
S' sofa'
p136
sg15
Nsg16
Fnan
sg17
Nsg18
g19
sg20
S'2010_001586.jpg'
p137
sg22
F31.6511564428
sg23
I27
sg24
I1
sg25
Nsg26
g112
sg28
Nsg29
L-999L
sg30
Nsg31
g32
sg33
g34
ssI29
(dp138
g4
Fnan
sg6
Fnan
sg7
g8
sg9
g40
sg11
Fnan
sg13
Fnan
sg15
Nsg16
Fnan
sg17
Nsg18
g19
sg20
S'2009_000466.jpg'
p139
sg22
F30.9540107157
sg23
I28
sg24
I1
sg25
Nsg26
g42
sg28
Nsg29
L-999L
sg30
Nsg31
g32
sg33
g34
ssI30
(dp140
g4
S' cat'
p141
sg6
Fnan
sg7
g8
sg9
g64
sg11
g77
sg13
g37
sg15
Nsg16
Fnan
sg17
Nsg18
g19
sg20
S'2008_000196.jpg'
p142
sg22
F35.353784429899996
sg23
I29
sg24
I1
sg25
Nsg26
g42
sg28
Nsg29
L-999L
sg30
Nsg31
g32
sg33
g34
ssI31
(dp143
g4
Fnan
sg6
Fnan
sg7
g8
sg9
S' bus'
p144
sg11
S' car'
p145
sg13
Fnan
sg15
Nsg16
Fnan
sg17
Nsg18
g19
sg20
S'2010_001118.jpg'
p146
sg22
F39.1163173722
sg23
I30
sg24
I1
sg25
Nsg26
g79
sg28
Nsg29
L-999L
sg30
Nsg31
g32
sg33
g34
ssI32
(dp147
g4
Fnan
sg6
Fnan
sg7
S'tone2'
p148
sg9
g10
sg11
g115
sg13
Fnan
sg15
Nsg16
Fnan
sg17
S'space'
p149
sg18
g19
sg20
S'2008_007745.jpg'
p150
sg22
F32.9593902214
sg23
I31
sg24
I1
sg25
F0.8469253526127432
sg26
g48
sg28
Nsg29
L215L
sg30
Nsg31
g133
sg33
g34
ssI33
(dp151
g4
Fnan
sg6
Fnan
sg7
g8
sg9
g108
sg11
g12
sg13
Fnan
sg15
Nsg16
Fnan
sg17
Nsg18
g19
sg20
S'2008_004670.jpg'
p152
sg22
F32.35147421
sg23
I32
sg24
I1
sg25
Nsg26
g89
sg28
Nsg29
L-999L
sg30
Nsg31
g32
sg33
g34
ssI34
(dp153
g4
Fnan
sg6
Fnan
sg7
g8
sg9
g108
sg11
g109
sg13
S' tvmonitor'
p154
sg15
Nsg16
Fnan
sg17
Nsg18
g19
sg20
S'2011_000434.jpg'
p155
sg22
F31.149256416500002
sg23
I33
sg24
I1
sg25
Nsg26
g112
sg28
Nsg29
L-999L
sg30
Nsg31
g32
sg33
g34
ssI35
(dp156
g4
Fnan
sg6
Fnan
sg7
g8
sg9
g10
sg11
S' boat'
p157
sg13
Fnan
sg15
Nsg16
Fnan
sg17
Nsg18
g19
sg20
S'2008_003081.jpg'
p158
sg22
F29.0064574566
sg23
I34
sg24
I1
sg25
Nsg26
g61
sg28
Nsg29
L-999L
sg30
Nsg31
g32
sg33
g34
ssI36
(dp159
g4
Fnan
sg6
Fnan
sg7
g8
sg9
g10
sg11
g51
sg13
g136
sg15
Nsg16
Fnan
sg17
Nsg18
g19
sg20
S'2010_004447.jpg'
p160
sg22
F33.5611857847
sg23
I35
sg24
I1
sg25
Nsg26
g27
sg28
Nsg29
L-999L
sg30
Nsg31
g32
sg33
g34
ssI37
(dp161
g4
Fnan
sg6
Fnan
sg7
g8
sg9
g10
sg11
g36
sg13
g37
sg15
Nsg16
Fnan
sg17
Nsg18
g19
sg20
S'2010_001645.jpg'
p162
sg22
F38.9726423889
sg23
I36
sg24
I1
sg25
Nsg26
g27
sg28
Nsg29
L-999L
sg30
Nsg31
g32
sg33
g34
ssI38
(dp163
g4
S' person'
p164
sg6
Fnan
sg7
g8
sg9
S' tvmonitor'
p165
sg11
g120
sg13
g37
sg15
Nsg16
Fnan
sg17
Nsg18
g19
sg20
S'2008_005090.jpg'
p166
sg22
F29.608026491599997
sg23
I37
sg24
I1
sg25
Nsg26
g27
sg28
Nsg29
L-999L
sg30
Nsg31
g32
sg33
g34
ssI39
(dp167
g4
Fnan
sg6
Fnan
sg7
g8
sg9
S' bird'
p168
sg11
Fnan
sg13
Fnan
sg15
Nsg16
Fnan
sg17
Nsg18
g19
sg20
S'2008_006461.jpg'
p169
sg22
F31.18243026
sg23
I38
sg24
I1
sg25
Nsg26
g86
sg28
Nsg29
L-999L
sg30
Nsg31
g32
sg33
g34
ssI40
(dp170
g4
Fnan
sg6
Fnan
sg7
g8
sg9
g168
sg11
Fnan
sg13
Fnan
sg15
Nsg16
Fnan
sg17
Nsg18
g19
sg20
S'2008_007423.jpg'
p171
sg22
F33.647398005599996
sg23
I39
sg24
I1
sg25
Nsg26
g86
sg28
Nsg29
L-999L
sg30
Nsg31
g32
sg33
g34
ssI41
(dp172
g4
Fnan
sg6
Fnan
sg7
g8
sg9
g10
sg11
g73
sg13
Fnan
sg15
Nsg16
Fnan
sg17
Nsg18
g19
sg20
S'2011_001800.jpg'
p173
sg22
F30.9530432899
sg23
I40
sg24
I1
sg25
Nsg26
g75
sg28
Nsg29
L-999L
sg30
Nsg31
g32
sg33
g34
ssI42
(dp174
g4
S' motorbike'
p175
sg6
S' boat'
p176
sg7
g8
sg9
g64
sg11
g109
sg13
g66
sg15
Nsg16
Fnan
sg17
Nsg18
g19
sg20
S'2009_003351.jpg'
p177
sg22
F31.580489902100002
sg23
I41
sg24
I1
sg25
Nsg26
g101
sg28
Nsg29
L-999L
sg30
Nsg31
g32
sg33
g34
ssI43
(dp178
g4
Fnan
sg6
Fnan
sg7
g8
sg9
g64
sg11
g109
sg13
S' train'
p179
sg15
Nsg16
Fnan
sg17
Nsg18
g19
sg20
S'2010_005996.jpg'
p180
sg22
F29.106006376
sg23
I42
sg24
I1
sg25
Nsg26
g70
sg28
Nsg29
L-999L
sg30
Nsg31
g32
sg33
g34
ssI44
(dp181
g4
Fnan
sg6
Fnan
sg7
g148
sg9
g168
sg11
Fnan
sg13
Fnan
sg15
Nsg16
Fnan
sg17
Nsg18
g19
sg20
S'2008_004690.jpg'
p182
sg22
F30.5153527617
sg23
I43
sg24
I1
sg25
Nsg26
g86
sg28
Nsg29
L961L
sg30
Nsg31
g133
sg33
g34
ssI45
(dp183
g4
S' diningtable'
p184
sg6
Fnan
sg7
g8
sg9
g64
sg11
g120
sg13
g66
sg15
Nsg16
Fnan
sg17
S'space'
p185
sg18
g19
sg20
S'2011_000530.jpg'
p186
sg22
F29.8068196257
sg23
I44
sg24
I1
sg25
F0.17669735234630934
sg26
g112
sg28
Nsg29
L-999L
sg30
Nsg31
g32
sg33
g34
ssI46
(dp187
g4
Fnan
sg6
Fnan
sg7
g8
sg9
g64
sg11
g12
sg13
g14
sg15
Nsg16
Fnan
sg17
Nsg18
g19
sg20
S'2009_000760.jpg'
p188
sg22
F34.1778342477
sg23
I45
sg24
I1
sg25
Nsg26
g70
sg28
Nsg29
L-999L
sg30
Nsg31
g32
sg33
g34
ssI47
(dp189
g4
Fnan
sg6
Fnan
sg7
g8
sg9
g10
sg11
g73
sg13
Fnan
sg15
Nsg16
Fnan
sg17
Nsg18
g19
sg20
S'2010_005106.jpg'
p190
sg22
F30.2429372093
sg23
I46
sg24
I1
sg25
Nsg26
g75
sg28
Nsg29
L-999L
sg30
Nsg31
g32
sg33
g34
ssI48
(dp191
g4
Fnan
sg6
Fnan
sg7
g8
sg9
g10
sg11
g145
sg13
Fnan
sg15
Nsg16
Fnan
sg17
Nsg18
g19
sg20
S'2008_005472.jpg'
p192
sg22
F28.8397417486
sg23
I47
sg24
I1
sg25
Nsg26
g61
sg28
Nsg29
L-999L
sg30
Nsg31
g32
sg33
g34
ssI49
(dp193
g4
Fnan
sg6
Fnan
sg7
g8
sg9
g72
sg11
g73
sg13
Fnan
sg15
Nsg16
Fnan
sg17
Nsg18
g19
sg20
S'2009_001321.jpg'
p194
sg22
F37.9375516575
sg23
I48
sg24
I1
sg25
Nsg26
g75
sg28
Nsg29
L-999L
sg30
Nsg31
g32
sg33
g34
ssI50
(dp195
g4
Fnan
sg6
Fnan
sg7
g8
sg9
g165
sg11
g12
sg13
g136
sg15
Nsg16
Fnan
sg17
Nsg18
g19
sg20
S'2008_000093.jpg'
p196
sg22
F29.8220330038
sg23
I49
sg24
I1
sg25
Nsg26
g112
sg28
Nsg29
L-999L
sg30
Nsg31
g32
sg33
g34
ssI51
(dp197
g4
Fnan
sg6
Fnan
sg7
g8
sg9
g44
sg11
Fnan
sg13
Fnan
sg15
S'q'
p198
sg16
S' dog'
p199
sg17
Nsg18
g19
sg20
S'2008_003180.jpg'
p200
sg22
F31.5378571257
sg23
I50
sg24
I1
sg25
Nsg26
g48
sg28
I-999
sg29
L-999L
sg30
F2.852188029759418
sg31
g32
sg33
g113
ssI52
(dp201
g4
Fnan
sg6
Fnan
sg7
g8
sg9
g64
sg11
g145
sg13
Fnan
sg15
S'p'
p202
sg16
S' aeroplane'
p203
sg17
Nsg18
g19
sg20
S'2008_000488.jpg'
p204
sg22
F30.6126931776
sg23
I51
sg24
I1
sg25
Nsg26
g79
sg28
I-999
sg29
L-999L
sg30
F2.6020448572999157
sg31
g32
sg33
g49
ssI53
(dp205
g4
Fnan
sg6
Fnan
sg7
g8
sg9
g10
sg11
g73
sg13
Fnan
sg15
Nsg16
Fnan
sg17
Nsg18
g19
sg20
S'2009_002001.jpg'
p206
sg22
F34.5441448216
sg23
I52
sg24
I1
sg25
Nsg26
g75
sg28
Nsg29
L-999L
sg30
Nsg31
g32
sg33
g34
ssI54
(dp207
g4
Fnan
sg6
Fnan
sg7
g8
sg9
g99
sg11
Fnan
sg13
Fnan
sg15
Nsg16
Fnan
sg17
Nsg18
g19
sg20
S'2011_001991.jpg'
p208
sg22
F34.0471469053
sg23
I53
sg24
I1
sg25
Nsg26
g101
sg28
Nsg29
L-999L
sg30
Nsg31
g32
sg33
g34
ssI55
(dp209
g4
Fnan
sg6
Fnan
sg7
g8
sg9
g40
sg11
Fnan
sg13
Fnan
sg15
Nsg16
Fnan
sg17
Nsg18
g19
sg20
S'2011_000824.jpg'
p210
sg22
F31.7798588195
sg23
I54
sg24
I1
sg25
Nsg26
g42
sg28
Nsg29
L-999L
sg30
Nsg31
g32
sg33
g34
ssI56
(dp211
g4
S' tvmonitor'
p212
sg6
Fnan
sg7
g8
sg9
g10
sg11
g12
sg13
g37
sg15
Nsg16
Fnan
sg17
Nsg18
g19
sg20
S'2008_000202.jpg'
p213
sg22
F34.6330560906
sg23
I55
sg24
I1
sg25
Nsg26
g27
sg28
Nsg29
L-999L
sg30
Nsg31
g32
sg33
g34
ssI57
(dp214
g4
Fnan
sg6
Fnan
sg7
g8
sg9
g72
sg11
g109
sg13
S' bus'
p215
sg15
Nsg16
Fnan
sg17
Nsg18
g19
sg20
S'2008_000982.jpg'
p216
sg22
F35.0694191822
sg23
I56
sg24
I1
sg25
Nsg26
g79
sg28
Nsg29
L-999L
sg30
Nsg31
g32
sg33
g34
ssI58
(dp217
g4
Fnan
sg6
Fnan
sg7
g8
sg9
g44
sg11
Fnan
sg13
Fnan
sg15
Nsg16
Fnan
sg17
Nsg18
g19
sg20
S'2011_001944.jpg'
p218
sg22
F31.7281700631
sg23
I57
sg24
I1
sg25
Nsg26
g48
sg28
Nsg29
L-999L
sg30
Nsg31
g32
sg33
g34
ssI59
(dp219
g4
Fnan
sg6
Fnan
sg7
g8
sg9
g10
sg11
g120
sg13
S' cat'
p220
sg15
S'p'
p221
sg16
S' cat'
p222
sg17
Nsg18
g19
sg20
S'2010_005606.jpg'
p223
sg22
F29.5141897874
sg23
I58
sg24
I1
sg25
Nsg26
g42
sg28
I-999
sg29
L-999L
sg30
F4.152906686409551
sg31
g32
sg33
g113
ssI60
(dp224
g4
Fnan
sg6
Fnan
sg7
g8
sg9
g165
sg11
g51
sg13
Fnan
sg15
Nsg16
Fnan
sg17
Nsg18
g19
sg20
S'2008_006062.jpg'
p225
sg22
F29.9937814283
sg23
I59
sg24
I1
sg25
Nsg26
g27
sg28
Nsg29
L-999L
sg30
Nsg31
g32
sg33
g34
ssI61
(dp226
g4
Fnan
sg6
Fnan
sg7
g8
sg9
g44
sg11
Fnan
sg13
Fnan
sg15
Nsg16
Fnan
sg17
Nsg18
S'low'
p227
sg20
S'2010_005391.jpg'
p228
sg22
F18.6088037047
sg23
I0
sg24
I2
sg25
Nsg26
g48
sg28
Nsg29
L-999L
sg30
Nsg31
g32
sg33
g34
ssI62
(dp229
g4
Fnan
sg6
Fnan
sg7
g8
sg9
g99
sg11
Fnan
sg13
Fnan
sg15
Nsg16
Fnan
sg17
Nsg18
g227
sg20
S'2010_003911.jpg'
p230
sg22
F20.084302537
sg23
I1
sg24
I2
sg25
Nsg26
g101
sg28
Nsg29
L-999L
sg30
Nsg31
g32
sg33
g34
ssI63
(dp231
g4
Fnan
sg6
Fnan
sg7
g8
sg9
g10
sg11
g157
sg13
Fnan
sg15
Nsg16
Fnan
sg17
Nsg18
g227
sg20
S'2010_001036.jpg'
p232
sg22
F19.19481595
sg23
I2
sg24
I2
sg25
Nsg26
g101
sg28
Nsg29
L-999L
sg30
Nsg31
g32
sg33
g34
ssI64
(dp233
g4
Fnan
sg6
Fnan
sg7
g8
sg9
g99
sg11
Fnan
sg13
Fnan
sg15
Nsg16
Fnan
sg17
Nsg18
g227
sg20
S'2008_001040.jpg'
p234
sg22
F20.2100437036
sg23
I3
sg24
I2
sg25
Nsg26
g101
sg28
Nsg29
L-999L
sg30
Nsg31
g32
sg33
g34
ssI65
(dp235
g4
Fnan
sg6
Fnan
sg7
g8
sg9
g64
sg11
Fnan
sg13
Fnan
sg15
Nsg16
Fnan
sg17
Nsg18
g227
sg20
S'2008_005214.jpg'
p236
sg22
F21.2176699016
sg23
I4
sg24
I2
sg25
Nsg26
g70
sg28
Nsg29
L-999L
sg30
Nsg31
g32
sg33
g34
ssI66
(dp237
g4
Fnan
sg6
Fnan
sg7
g8
sg9
g44
sg11
Fnan
sg13
Fnan
sg15
Nsg16
Fnan
sg17
Nsg18
g227
sg20
S'2008_000183.jpg'
p238
sg22
F19.7552861872
sg23
I5
sg24
I2
sg25
Nsg26
g48
sg28
Nsg29
L-999L
sg30
Nsg31
g32
sg33
g34
ssI67
(dp239
g4
Fnan
sg6
Fnan
sg7
g8
sg9
S' aeroplane'
p240
sg11
Fnan
sg13
Fnan
sg15
Nsg16
Fnan
sg17
Nsg18
g227
sg20
S'2008_008263.jpg'
p241
sg22
F17.3506654694
sg23
I6
sg24
I2
sg25
Nsg26
g75
sg28
Nsg29
L-999L
sg30
Nsg31
g32
sg33
g34
ssI68
(dp242
g4
Fnan
sg6
Fnan
sg7
g8
sg9
g64
sg11
Fnan
sg13
Fnan
sg15
Nsg16
Fnan
sg17
Nsg18
g227
sg20
S'2010_000132.jpg'
p243
sg22
F19.906276626
sg23
I7
sg24
I2
sg25
Nsg26
g70
sg28
Nsg29
L-999L
sg30
Nsg31
g32
sg33
g34
ssI69
(dp244
g4
Fnan
sg6
Fnan
sg7
g8
sg9
g99
sg11
Fnan
sg13
Fnan
sg15
Nsg16
Fnan
sg17
Nsg18
g227
sg20
S'2010_001691.jpg'
p245
sg22
F16.8629662116
sg23
I8
sg24
I2
sg25
Nsg26
g101
sg28
Nsg29
L-999L
sg30
Nsg31
g32
sg33
g34
ssI70
(dp246
g4
Fnan
sg6
Fnan
sg7
g8
sg9
g10
sg11
g157
sg13
Fnan
sg15
Nsg16
Fnan
sg17
Nsg18
g227
sg20
S'2009_004888.jpg'
p247
sg22
F16.6512424605
sg23
I9
sg24
I2
sg25
Nsg26
g101
sg28
Nsg29
L-999L
sg30
Nsg31
g32
sg33
g34
sssS'observer_details'
p248
(dp249
VAge
p250
V1
p251
sVSex
p252
Vm
p253
sS'date'
p254
S'2017_Oct_12_1242'
p255
sS'expName'
p256
S'participant info'
p257
sVRight handed?
p258
S'1'
p259
sVParticipant no.
p260
V3000
p261
ss.