(dp0
S'experiment_details'
p1
(dp2
I1
(dp3
S'cat_4'
p4
Fnan
sS'cat_5'
p5
Fnan
sS'tone_hz'
p6
S'No tone'
p7
sS'cat_1'
p8
S' cat'
p9
sS'cat_2'
p10
Fnan
sS'cat_3'
p11
Fnan
sS'block_number'
p12
I1
sS'question'
p13
Fnan
sS'space'
p14
S'No spacebar'
p15
sS'load'
p16
S'low'
p17
sS'image_name'
p18
S'2009_004225.jpg'
p19
sS'trueskill'
p20
F12.7290334447
sS'image_number'
p21
I0
sS'RT_TO'
p22
S'No timing'
p23
sS'exemplar'
p24
S' cat'
p25
sS'tone_onset'
p26
L-999L
sS'trial_type'
p27
S'Normal'
p28
sS'present_absent'
p29
S'No Target'
p30
ssI2
(dp31
g4
Fnan
sg5
Fnan
sg6
g7
sg8
S' horse'
p32
sg10
Fnan
sg11
Fnan
sg12
I1
sg13
Fnan
sg14
g15
sg16
g17
sg18
S'2010_001829.jpg'
p33
sg20
F19.2344013367
sg21
I1
sg22
g23
sg24
S' horse'
p34
sg26
L-999L
sg27
g28
sg29
g30
ssI3
(dp35
g4
Fnan
sg5
Fnan
sg6
g7
sg8
S' person'
p36
sg10
S' sofa'
p37
sg11
Fnan
sg12
I1
sg13
Fnan
sg14
g15
sg16
g17
sg18
S'2008_004270.jpg'
p38
sg20
F19.2440358751
sg21
I2
sg22
g23
sg24
S' sofa'
p39
sg26
L-999L
sg27
g28
sg29
g30
ssI4
(dp40
g4
Fnan
sg5
Fnan
sg6
g7
sg8
S' car'
p41
sg10
S' person'
p42
sg11
Fnan
sg12
I1
sg13
Fnan
sg14
g15
sg16
g17
sg18
S'2011_002303.jpg'
p43
sg20
F20.6957146074
sg21
I3
sg22
g23
sg24
S' car'
p44
sg26
L-999L
sg27
g28
sg29
g30
ssI5
(dp45
g4
Fnan
sg5
Fnan
sg6
g7
sg8
S' dog'
p46
sg10
Fnan
sg11
Fnan
sg12
I1
sg13
Fnan
sg14
g15
sg16
g17
sg18
S'2010_005885.jpg'
p47
sg20
F20.0746861318
sg21
I4
sg22
g23
sg24
S' dog'
p48
sg26
L-999L
sg27
g28
sg29
g30
ssI6
(dp49
g4
Fnan
sg5
Fnan
sg6
g7
sg8
S' boat'
p50
sg10
Fnan
sg11
Fnan
sg12
I1
sg13
Fnan
sg14
g15
sg16
g17
sg18
S'2008_001040.jpg'
p51
sg20
F20.2100437036
sg21
I5
sg22
g23
sg24
S' boat'
p52
sg26
L-999L
sg27
g28
sg29
g30
ssI7
(dp53
g4
Fnan
sg5
Fnan
sg6
g7
sg8
g50
sg10
Fnan
sg11
Fnan
sg12
I1
sg13
Fnan
sg14
g15
sg16
g17
sg18
S'2010_004662.jpg'
p54
sg20
F21.1986204175
sg21
I6
sg22
g23
sg24
g52
sg26
L-999L
sg27
g28
sg29
g30
ssI8
(dp55
g4
Fnan
sg5
Fnan
sg6
g7
sg8
g50
sg10
Fnan
sg11
Fnan
sg12
I1
sg13
Fnan
sg14
g15
sg16
g17
sg18
S'2010_005780.jpg'
p56
sg20
F16.8463365792
sg21
I7
sg22
g23
sg24
g52
sg26
L-999L
sg27
g28
sg29
g30
ssI9
(dp57
g4
Fnan
sg5
Fnan
sg6
g7
sg8
S' bottle'
p58
sg10
Fnan
sg11
Fnan
sS'keys'
p59
S'p'
p60
sg13
S' bird'
p61
sg14
g15
sg16
g17
sg18
S'2009_002594.jpg'
p62
sg20
F19.0962373595
sg21
I8
sg12
I1
sg22
g23
sg24
S' bottle'
p63
sS'useless'
p64
I-999
sg26
L-999L
sS'RT_VS'
p65
F2.4769043649357627
sg27
g28
sg29
S'Target Absent'
p66
ssI10
(dp67
g4
Fnan
sg5
Fnan
sg6
g7
sg8
g46
sg10
Fnan
sg11
Fnan
sg12
I1
sg13
Fnan
sg14
g15
sg16
g17
sg18
S'2009_001568.jpg'
p68
sg20
F17.1025902592
sg21
I9
sg22
g23
sg24
g48
sg26
L-999L
sg27
g28
sg29
g30
ssI11
(dp69
g4
Fnan
sg5
Fnan
sg6
g7
sg8
g36
sg10
S' dog'
p70
sg11
Fnan
sg12
I1
sg13
Fnan
sg14
g15
sg16
g17
sg18
S'2008_005046.jpg'
p71
sg20
F20.7128987687
sg21
I10
sg22
g23
sg24
g48
sg26
L-999L
sg27
g28
sg29
g30
ssI12
(dp72
g4
Fnan
sg5
Fnan
sg6
g7
sg8
g9
sg10
Fnan
sg11
Fnan
sg59
S'q'
p73
sg13
S' cat'
p74
sg14
g15
sg16
g17
sg18
S'2008_001836.jpg'
p75
sg20
F20.4638836895
sg21
I11
sg12
I1
sg22
g23
sg24
g25
sg64
I-999
sg26
L-999L
sg65
F2.688052610086743
sg27
g28
sg29
S'Target Present'
p76
ssI13
(dp77
g4
Fnan
sg5
Fnan
sg6
g7
sg8
g41
sg10
Fnan
sg11
Fnan
sg59
S'p'
p78
sg13
S' boat'
p79
sg14
g15
sg16
g17
sg18
S'2009_004594.jpg'
p80
sg20
F19.0301781524
sg21
I12
sg12
I1
sg22
g23
sg24
g44
sg64
I-999
sg26
L-999L
sg65
F2.4302338543311635
sg27
g28
sg29
g66
ssI14
(dp81
g4
Fnan
sg5
Fnan
sg6
g7
sg8
g36
sg10
S' bottle'
p82
sg11
Fnan
sg12
I1
sg13
Fnan
sg14
g15
sg16
g17
sg18
S'2008_004814.jpg'
p83
sg20
F19.8690992474
sg21
I13
sg22
g23
sg24
g63
sg26
L-999L
sg27
g28
sg29
g30
ssI15
(dp84
g4
Fnan
sg5
Fnan
sg6
g7
sg8
g36
sg10
S' boat'
p85
sg11
Fnan
sg12
I1
sg13
Fnan
sg14
g15
sg16
g17
sg18
S'2008_008083.jpg'
p86
sg20
F18.6424504286
sg21
I14
sg22
g23
sg24
S' person'
p87
sg26
L-999L
sg27
g28
sg29
g30
ssI16
(dp88
g4
Fnan
sg5
Fnan
sg6
g7
sg8
g36
sg10
Fnan
sg11
Fnan
sg12
I1
sg13
Fnan
sg14
g15
sg16
g17
sg18
S'2008_001098.jpg'
p89
sg20
F15.903696109
sg21
I15
sg22
g23
sg24
g87
sg26
L-999L
sg27
g28
sg29
g30
ssI17
(dp90
g4
Fnan
sg5
Fnan
sg6
g7
sg8
g36
sg10
Fnan
sg11
Fnan
sg12
I1
sg13
Fnan
sg14
g15
sg16
g17
sg18
S'2008_002700.jpg'
p91
sg20
F21.051373291199997
sg21
I16
sg22
g23
sg24
g87
sg26
L-999L
sg27
g28
sg29
g30
ssI18
(dp92
g4
Fnan
sg5
Fnan
sg6
g7
sg8
g36
sg10
S' cat'
p93
sg11
Fnan
sg12
I1
sg13
Fnan
sg14
g15
sg16
g17
sg18
S'2009_002439.jpg'
p94
sg20
F20.1398778052
sg21
I17
sg22
g23
sg24
g87
sg26
L-999L
sg27
g28
sg29
g30
ssI19
(dp95
g4
Fnan
sg5
Fnan
sg6
g7
sg8
g32
sg10
Fnan
sg11
Fnan
sg12
I1
sg13
Fnan
sg14
g15
sg16
g17
sg18
S'2009_003232.jpg'
p96
sg20
F20.957748315299998
sg21
I18
sg22
g23
sg24
g34
sg26
L-999L
sg27
g28
sg29
g30
ssI20
(dp97
g4
Fnan
sg5
Fnan
sg6
g7
sg8
g46
sg10
Fnan
sg11
Fnan
sg12
I1
sg13
Fnan
sg14
g15
sg16
g17
sg18
S'2010_000811.jpg'
p98
sg20
F18.0450356506
sg21
I19
sg22
g23
sg24
g48
sg26
L-999L
sg27
g28
sg29
g30
ssI21
(dp99
g4
Fnan
sg5
Fnan
sg6
g7
sg8
g36
sg10
Fnan
sg11
Fnan
sg12
I1
sg13
Fnan
sg14
g15
sg16
g17
sg18
S'2008_002145.jpg'
p100
sg20
F18.8795575328
sg21
I20
sg22
g23
sg24
g87
sg26
L-999L
sg27
g28
sg29
g30
ssI22
(dp101
g4
Fnan
sg5
Fnan
sg6
g7
sg8
g58
sg10
Fnan
sg11
Fnan
sg12
I1
sg13
Fnan
sg14
g15
sg16
g17
sg18
S'2010_002956.jpg'
p102
sg20
F16.5988748608
sg21
I21
sg22
g23
sg24
g63
sg26
L-999L
sg27
g28
sg29
g30
ssI23
(dp103
g4
Fnan
sg5
Fnan
sg6
g7
sg8
g50
sg10
Fnan
sg11
Fnan
sg12
I1
sg13
Fnan
sg14
g15
sg16
g17
sg18
S'2009_000919.jpg'
p104
sg20
F19.2535195999
sg21
I22
sg22
g23
sg24
g52
sg26
L-999L
sg27
g28
sg29
g30
ssI24
(dp105
g4
Fnan
sg5
Fnan
sg6
g7
sg8
g9
sg10
Fnan
sg11
Fnan
sg12
I1
sg13
Fnan
sg14
g15
sg16
g17
sg18
S'2009_000716.jpg'
p106
sg20
F20.5373535376
sg21
I23
sg22
g23
sg24
g25
sg26
L-999L
sg27
g28
sg29
g30
ssI25
(dp107
g4
Fnan
sg5
Fnan
sg6
g7
sg8
S' sofa'
p108
sg10
g42
sg11
Fnan
sg12
I1
sg13
Fnan
sg14
g15
sg16
g17
sg18
S'2008_004269.jpg'
p109
sg20
F20.9832980594
sg21
I24
sg22
g23
sg24
g39
sg26
L-999L
sg27
g28
sg29
g30
ssI26
(dp110
g4
Fnan
sg5
Fnan
sg6
g7
sg8
S' chair'
p111
sg10
S' diningtable'
p112
sg11
Fnan
sg12
I1
sg13
Fnan
sg14
g15
sg16
g17
sg18
S'2010_001271.jpg'
p113
sg20
F20.7351456906
sg21
I25
sg22
g23
sg24
S' chair'
p114
sg26
L-999L
sg27
g28
sg29
g30
ssI27
(dp115
g4
Fnan
sg5
Fnan
sg6
g7
sg8
S' bird'
p116
sg10
Fnan
sg11
Fnan
sg12
I1
sg13
Fnan
sg14
g15
sg16
g17
sg18
S'2011_002582.jpg'
p117
sg20
F19.2391461352
sg21
I26
sg22
g23
sg24
S' bird'
p118
sg26
L-999L
sg27
g28
sg29
g30
ssI28
(dp119
g4
Fnan
sg5
Fnan
sg6
S'tone1'
p120
sg8
g46
sg10
g82
sg11
Fnan
sg12
I1
sg13
Fnan
sg14
g15
sg16
g17
sg18
S'2010_000805.jpg'
p121
sg20
F18.8607033421
sg21
I27
sg22
g23
sg24
g63
sg26
L765L
sg27
S'Critical'
p122
sg29
g30
ssI29
(dp123
g4
Fnan
sg5
Fnan
sg6
g7
sg8
S' aeroplane'
p124
sg10
Fnan
sg11
Fnan
sg12
I1
sg13
Fnan
sg14
g15
sg16
g17
sg18
S'2008_007096.jpg'
p125
sg20
F20.1580444106
sg21
I28
sg22
g23
sg24
S' aeroplane'
p126
sg26
L-999L
sg27
g28
sg29
g30
ssI30
(dp127
g4
Fnan
sg5
Fnan
sg6
g7
sg8
g50
sg10
Fnan
sg11
Fnan
sg12
I1
sg13
Fnan
sg14
g15
sg16
g17
sg18
S'2009_001723.jpg'
p128
sg20
F19.2643376751
sg21
I29
sg22
g23
sg24
g52
sg26
L-999L
sg27
g28
sg29
g30
sssS'observer_details'
p129
(dp130
VAge
p131
V1
p132
sVSex
p133
V1
p134
sS'date'
p135
S'2017_Sep_27_1659'
p136
sS'expName'
p137
S'participant info'
p138
sVRight handed?
p139
S'1'
p140
sVParticipant no.
p141
g140
ss.